

Microchip MPLAB XC8 Assembler V3.00 build 20241204225717 
                                                                                               Sat May 17 19:05:29 2025

Microchip MPLAB XC8 C Compiler v3.00 (Free license) build 20241204225717 Og1 
     1                           	processor	18F4520
     2                           	fnconf	rparam,??,?,0
     3                           	pagewidth 120
     4                           	opt	flic
     5                           	psect	mediumconst,global,reloc=2,class=MEDIUMCONST,space=0,delta=1,noexec
     6                           	psect	cinit,global,reloc=2,class=CODE,space=0,delta=1
     7                           	psect	bssCOMRAM,global,class=COMRAM,space=1,delta=1,lowdata,noexec
     8                           	psect	cstackCOMRAM,global,class=COMRAM,space=1,delta=1,lowdata,noexec
     9                           	psect	text0,global,reloc=2,class=CODE,space=0,delta=1
    10                           	psect	text1,global,reloc=2,class=CODE,space=0,delta=1,group=2
    11                           	psect	text2,global,reloc=2,class=CODE,space=0,delta=1,group=2
    12                           	psect	text3,global,reloc=2,class=CODE,space=0,delta=1,group=2
    13                           	psect	text4,global,reloc=2,class=CODE,space=0,delta=1,group=2
    14                           	psect	text5,global,reloc=2,class=CODE,space=0,delta=1
    15                           	psect	text6,global,reloc=2,class=CODE,space=0,delta=1
    16                           	psect	text7,global,reloc=2,class=CODE,space=0,delta=1
    17                           	psect	text8,global,reloc=2,class=CODE,space=0,delta=1
    18                           	psect	text9,global,reloc=2,class=CODE,space=0,delta=1
    19                           	psect	text10,global,reloc=2,class=CODE,space=0,delta=1
    20                           	psect	text11,global,reloc=2,class=CODE,space=0,delta=1
    21                           	psect	text12,global,reloc=2,class=CODE,space=0,delta=1
    22                           	psect	intcode,global,reloc=2,class=CODE,space=0,delta=1
    23                           	psect	intcode_body,global,reloc=2,class=CODE,space=0,delta=1
    24                           	psect	intsave_regs,global,class=BIGRAM,space=1,delta=1,noexec
    25                           	psect	rparam,global,class=COMRAM,space=1,delta=1,noexec
    26                           	psect	temp,global,ovrld,common,class=COMRAM,space=1,delta=1,lowdata
    27                           	psect	config,global,abs,ovrld,class=CONFIG,space=4,delta=1,noexec
    28   000000                     
    29                           ; Generated 17/10/2023 GMT
    30                           ; 
    31                           ; Copyright © 2023, Microchip Technology Inc. and its subsidiaries ("Microchip")
    32                           ; All rights reserved.
    33                           ; 
    34                           ; This software is developed by Microchip Technology Inc. and its subsidiaries ("Microch
      +                          ip").
    35                           ; 
    36                           ; Redistribution and use in source and binary forms, with or without modification, are
    37                           ; permitted provided that the following conditions are met:
    38                           ; 
    39                           ;     1. Redistributions of source code must retain the above copyright notice, this lis
      +                          t of
    40                           ;        conditions and the following disclaimer.
    41                           ; 
    42                           ;     2. Redistributions in binary form must reproduce the above copyright notice, this 
      +                          list
    43                           ;        of conditions and the following disclaimer in the documentation and/or other
    44                           ;        materials provided with the distribution. Publication is not required when
    45                           ;        this file is used in an embedded application.
    46                           ; 
    47                           ;     3. Microchip's name may not be used to endorse or promote products derived from th
      +                          is
    48                           ;        software without specific prior written permission.
    49                           ; 
    50                           ; THIS SOFTWARE IS PROVIDED BY MICROCHIP "AS IS" AND ANY EXPRESS OR IMPLIED WARRANTIES,
    51                           ; INCLUDING, BUT NOT LIMITED TO, THE IMPLIED WARRANTIES OF MERCHANTABILITY AND FITNESS F
      +                          OR
    52                           ; PURPOSE ARE DISCLAIMED.  IN NO EVENT SHALL MICROCHIP BE LIABLE FOR ANY DIRECT, INDIREC
      +                          T,
    53                           ; INCIDENTAL, SPECIAL, EXEMPLARY, OR CONSEQUENTIAL DAMAGES (INCLUDING BUT NOT LIMITED TO
    54                           ; PROCUREMENT OF SUBSTITUTE GOODS OR SERVICES; LOSS OF USE, DATA OR PROFITS; OR BUSINESS
    55                           ; INTERRUPTION) HOWSOEVER CAUSED AND ON ANY THEORY OF LIABILITY, WHETHER IN CONTRACT, ST
      +                          RICT
    56                           ; LIABILITY, OR TORT (INCLUDING NEGLIGENCE OR OTHERWISE) ARISING IN ANY WAY OUT OF THE U
      +                          SE OF
    57                           ; THIS SOFTWARE, EVEN IF ADVISED OF THE POSSIBILITY OF SUCH DAMAGE.
    58                           ; 
    59                           ; 
    60                           ; Code-generator required, PIC18F4520 Definitions
    61                           ; 
    62                           ; SFR Addresses
    63   000FE0                     bsr             equ	4064
    64   000FE9                     fsr0            equ	4073
    65   000FEA                     fsr0h           equ	4074
    66   000FE9                     fsr0l           equ	4073
    67   000FE1                     fsr1            equ	4065
    68   000FE2                     fsr1h           equ	4066
    69   000FE1                     fsr1l           equ	4065
    70   000FD9                     fsr2            equ	4057
    71   000FDA                     fsr2h           equ	4058
    72   000FD9                     fsr2l           equ	4057
    73   000FEF                     indf0           equ	4079
    74   000FE7                     indf1           equ	4071
    75   000FDF                     indf2           equ	4063
    76   000FF2                     intcon          equ	4082
    77   000000                     nvmcon          equ	0
    78   000FF9                     pcl             equ	4089
    79   000FFA                     pclath          equ	4090
    80   000FFB                     pclatu          equ	4091
    81   000FEB                     plusw0          equ	4075
    82   000FE3                     plusw1          equ	4067
    83   000FDB                     plusw2          equ	4059
    84   000FED                     postdec0        equ	4077
    85   000FE5                     postdec1        equ	4069
    86   000FDD                     postdec2        equ	4061
    87   000FEE                     postinc0        equ	4078
    88   000FE6                     postinc1        equ	4070
    89   000FDE                     postinc2        equ	4062
    90   000FEC                     preinc0         equ	4076
    91   000FE4                     preinc1         equ	4068
    92   000FDC                     preinc2         equ	4060
    93   000FF3                     prod            equ	4083
    94   000FF4                     prodh           equ	4084
    95   000FF3                     prodl           equ	4083
    96   000FD8                     status          equ	4056
    97   000FF5                     tablat          equ	4085
    98   000FF6                     tblptr          equ	4086
    99   000FF7                     tblptrh         equ	4087
   100   000FF6                     tblptrl         equ	4086
   101   000FF8                     tblptru         equ	4088
   102   000FFD                     tosl            equ	4093
   103   000FE8                     wreg            equ	4072
   104   000F80                     PORTA           equ	3968	;# 
   105   000F81                     PORTB           equ	3969	;# 
   106   000F82                     PORTC           equ	3970	;# 
   107   000F83                     PORTD           equ	3971	;# 
   108   000F84                     PORTE           equ	3972	;# 
   109   000F89                     LATA            equ	3977	;# 
   110   000F8A                     LATB            equ	3978	;# 
   111   000F8B                     LATC            equ	3979	;# 
   112   000F8C                     LATD            equ	3980	;# 
   113   000F8D                     LATE            equ	3981	;# 
   114   000F92                     TRISA           equ	3986	;# 
   115   000F92                     DDRA            equ	3986	;# 
   116   000F93                     TRISB           equ	3987	;# 
   117   000F93                     DDRB            equ	3987	;# 
   118   000F94                     TRISC           equ	3988	;# 
   119   000F94                     DDRC            equ	3988	;# 
   120   000F95                     TRISD           equ	3989	;# 
   121   000F95                     DDRD            equ	3989	;# 
   122   000F96                     TRISE           equ	3990	;# 
   123   000F96                     DDRE            equ	3990	;# 
   124   000F9B                     OSCTUNE         equ	3995	;# 
   125   000F9D                     PIE1            equ	3997	;# 
   126   000F9E                     PIR1            equ	3998	;# 
   127   000F9F                     IPR1            equ	3999	;# 
   128   000FA0                     PIE2            equ	4000	;# 
   129   000FA1                     PIR2            equ	4001	;# 
   130   000FA2                     IPR2            equ	4002	;# 
   131   000FA6                     EECON1          equ	4006	;# 
   132   000FA7                     EECON2          equ	4007	;# 
   133   000FA8                     EEDATA          equ	4008	;# 
   134   000FA9                     EEADR           equ	4009	;# 
   135   000FAB                     RCSTA           equ	4011	;# 
   136   000FAB                     RCSTA1          equ	4011	;# 
   137   000FAC                     TXSTA           equ	4012	;# 
   138   000FAC                     TXSTA1          equ	4012	;# 
   139   000FAD                     TXREG           equ	4013	;# 
   140   000FAD                     TXREG1          equ	4013	;# 
   141   000FAE                     RCREG           equ	4014	;# 
   142   000FAE                     RCREG1          equ	4014	;# 
   143   000FAF                     SPBRG           equ	4015	;# 
   144   000FAF                     SPBRG1          equ	4015	;# 
   145   000FB0                     SPBRGH          equ	4016	;# 
   146   000FB1                     T3CON           equ	4017	;# 
   147   000FB2                     TMR3            equ	4018	;# 
   148   000FB2                     TMR3L           equ	4018	;# 
   149   000FB3                     TMR3H           equ	4019	;# 
   150   000FB4                     CMCON           equ	4020	;# 
   151   000FB5                     CVRCON          equ	4021	;# 
   152   000FB6                     ECCP1AS         equ	4022	;# 
   153   000FB6                     ECCPAS          equ	4022	;# 
   154   000FB7                     PWM1CON         equ	4023	;# 
   155   000FB7                     ECCP1DEL        equ	4023	;# 
   156   000FB8                     BAUDCON         equ	4024	;# 
   157   000FB8                     BAUDCTL         equ	4024	;# 
   158   000FBA                     CCP2CON         equ	4026	;# 
   159   000FBB                     CCPR2           equ	4027	;# 
   160   000FBB                     CCPR2L          equ	4027	;# 
   161   000FBC                     CCPR2H          equ	4028	;# 
   162   000FBD                     CCP1CON         equ	4029	;# 
   163   000FBE                     CCPR1           equ	4030	;# 
   164   000FBE                     CCPR1L          equ	4030	;# 
   165   000FBF                     CCPR1H          equ	4031	;# 
   166   000FC0                     ADCON2          equ	4032	;# 
   167   000FC1                     ADCON1          equ	4033	;# 
   168   000FC2                     ADCON0          equ	4034	;# 
   169   000FC3                     ADRES           equ	4035	;# 
   170   000FC3                     ADRESL          equ	4035	;# 
   171   000FC4                     ADRESH          equ	4036	;# 
   172   000FC5                     SSPCON2         equ	4037	;# 
   173   000FC6                     SSPCON1         equ	4038	;# 
   174   000FC7                     SSPSTAT         equ	4039	;# 
   175   000FC8                     SSPADD          equ	4040	;# 
   176   000FC9                     SSPBUF          equ	4041	;# 
   177   000FCA                     T2CON           equ	4042	;# 
   178   000FCB                     PR2             equ	4043	;# 
   179   000FCB                     MEMCON          equ	4043	;# 
   180   000FCC                     TMR2            equ	4044	;# 
   181   000FCD                     T1CON           equ	4045	;# 
   182   000FCE                     TMR1            equ	4046	;# 
   183   000FCE                     TMR1L           equ	4046	;# 
   184   000FCF                     TMR1H           equ	4047	;# 
   185   000FD0                     RCON            equ	4048	;# 
   186   000FD1                     WDTCON          equ	4049	;# 
   187   000FD2                     HLVDCON         equ	4050	;# 
   188   000FD2                     LVDCON          equ	4050	;# 
   189   000FD3                     OSCCON          equ	4051	;# 
   190   000FD5                     T0CON           equ	4053	;# 
   191   000FD6                     TMR0            equ	4054	;# 
   192   000FD6                     TMR0L           equ	4054	;# 
   193   000FD7                     TMR0H           equ	4055	;# 
   194   000FD8                     STATUS          equ	4056	;# 
   195   000FD9                     FSR2            equ	4057	;# 
   196   000FD9                     FSR2L           equ	4057	;# 
   197   000FDA                     FSR2H           equ	4058	;# 
   198   000FDB                     PLUSW2          equ	4059	;# 
   199   000FDC                     PREINC2         equ	4060	;# 
   200   000FDD                     POSTDEC2        equ	4061	;# 
   201   000FDE                     POSTINC2        equ	4062	;# 
   202   000FDF                     INDF2           equ	4063	;# 
   203   000FE0                     BSR             equ	4064	;# 
   204   000FE1                     FSR1            equ	4065	;# 
   205   000FE1                     FSR1L           equ	4065	;# 
   206   000FE2                     FSR1H           equ	4066	;# 
   207   000FE3                     PLUSW1          equ	4067	;# 
   208   000FE4                     PREINC1         equ	4068	;# 
   209   000FE5                     POSTDEC1        equ	4069	;# 
   210   000FE6                     POSTINC1        equ	4070	;# 
   211   000FE7                     INDF1           equ	4071	;# 
   212   000FE8                     WREG            equ	4072	;# 
   213   000FE9                     FSR0            equ	4073	;# 
   214   000FE9                     FSR0L           equ	4073	;# 
   215   000FEA                     FSR0H           equ	4074	;# 
   216   000FEB                     PLUSW0          equ	4075	;# 
   217   000FEC                     PREINC0         equ	4076	;# 
   218   000FED                     POSTDEC0        equ	4077	;# 
   219   000FEE                     POSTINC0        equ	4078	;# 
   220   000FEF                     INDF0           equ	4079	;# 
   221   000FF0                     INTCON3         equ	4080	;# 
   222   000FF1                     INTCON2         equ	4081	;# 
   223   000FF2                     INTCON          equ	4082	;# 
   224   000FF3                     PROD            equ	4083	;# 
   225   000FF3                     PRODL           equ	4083	;# 
   226   000FF4                     PRODH           equ	4084	;# 
   227   000FF5                     TABLAT          equ	4085	;# 
   228   000FF6                     TBLPTR          equ	4086	;# 
   229   000FF6                     TBLPTRL         equ	4086	;# 
   230   000FF7                     TBLPTRH         equ	4087	;# 
   231   000FF8                     TBLPTRU         equ	4088	;# 
   232   000FF9                     PCLAT           equ	4089	;# 
   233   000FF9                     PC              equ	4089	;# 
   234   000FF9                     PCL             equ	4089	;# 
   235   000FFA                     PCLATH          equ	4090	;# 
   236   000FFB                     PCLATU          equ	4091	;# 
   237   000FFC                     STKPTR          equ	4092	;# 
   238   000FFD                     TOS             equ	4093	;# 
   239   000FFD                     TOSL            equ	4093	;# 
   240   000FFE                     TOSH            equ	4094	;# 
   241   000FFF                     TOSU            equ	4095	;# 
   242   000F80                     PORTA           equ	3968	;# 
   243   000F81                     PORTB           equ	3969	;# 
   244   000F82                     PORTC           equ	3970	;# 
   245   000F83                     PORTD           equ	3971	;# 
   246   000F84                     PORTE           equ	3972	;# 
   247   000F89                     LATA            equ	3977	;# 
   248   000F8A                     LATB            equ	3978	;# 
   249   000F8B                     LATC            equ	3979	;# 
   250   000F8C                     LATD            equ	3980	;# 
   251   000F8D                     LATE            equ	3981	;# 
   252   000F92                     TRISA           equ	3986	;# 
   253   000F92                     DDRA            equ	3986	;# 
   254   000F93                     TRISB           equ	3987	;# 
   255   000F93                     DDRB            equ	3987	;# 
   256   000F94                     TRISC           equ	3988	;# 
   257   000F94                     DDRC            equ	3988	;# 
   258   000F95                     TRISD           equ	3989	;# 
   259   000F95                     DDRD            equ	3989	;# 
   260   000F96                     TRISE           equ	3990	;# 
   261   000F96                     DDRE            equ	3990	;# 
   262   000F9B                     OSCTUNE         equ	3995	;# 
   263   000F9D                     PIE1            equ	3997	;# 
   264   000F9E                     PIR1            equ	3998	;# 
   265   000F9F                     IPR1            equ	3999	;# 
   266   000FA0                     PIE2            equ	4000	;# 
   267   000FA1                     PIR2            equ	4001	;# 
   268   000FA2                     IPR2            equ	4002	;# 
   269   000FA6                     EECON1          equ	4006	;# 
   270   000FA7                     EECON2          equ	4007	;# 
   271   000FA8                     EEDATA          equ	4008	;# 
   272   000FA9                     EEADR           equ	4009	;# 
   273   000FAB                     RCSTA           equ	4011	;# 
   274   000FAB                     RCSTA1          equ	4011	;# 
   275   000FAC                     TXSTA           equ	4012	;# 
   276   000FAC                     TXSTA1          equ	4012	;# 
   277   000FAD                     TXREG           equ	4013	;# 
   278   000FAD                     TXREG1          equ	4013	;# 
   279   000FAE                     RCREG           equ	4014	;# 
   280   000FAE                     RCREG1          equ	4014	;# 
   281   000FAF                     SPBRG           equ	4015	;# 
   282   000FAF                     SPBRG1          equ	4015	;# 
   283   000FB0                     SPBRGH          equ	4016	;# 
   284   000FB1                     T3CON           equ	4017	;# 
   285   000FB2                     TMR3            equ	4018	;# 
   286   000FB2                     TMR3L           equ	4018	;# 
   287   000FB3                     TMR3H           equ	4019	;# 
   288   000FB4                     CMCON           equ	4020	;# 
   289   000FB5                     CVRCON          equ	4021	;# 
   290   000FB6                     ECCP1AS         equ	4022	;# 
   291   000FB6                     ECCPAS          equ	4022	;# 
   292   000FB7                     PWM1CON         equ	4023	;# 
   293   000FB7                     ECCP1DEL        equ	4023	;# 
   294   000FB8                     BAUDCON         equ	4024	;# 
   295   000FB8                     BAUDCTL         equ	4024	;# 
   296   000FBA                     CCP2CON         equ	4026	;# 
   297   000FBB                     CCPR2           equ	4027	;# 
   298   000FBB                     CCPR2L          equ	4027	;# 
   299   000FBC                     CCPR2H          equ	4028	;# 
   300   000FBD                     CCP1CON         equ	4029	;# 
   301   000FBE                     CCPR1           equ	4030	;# 
   302   000FBE                     CCPR1L          equ	4030	;# 
   303   000FBF                     CCPR1H          equ	4031	;# 
   304   000FC0                     ADCON2          equ	4032	;# 
   305   000FC1                     ADCON1          equ	4033	;# 
   306   000FC2                     ADCON0          equ	4034	;# 
   307   000FC3                     ADRES           equ	4035	;# 
   308   000FC3                     ADRESL          equ	4035	;# 
   309   000FC4                     ADRESH          equ	4036	;# 
   310   000FC5                     SSPCON2         equ	4037	;# 
   311   000FC6                     SSPCON1         equ	4038	;# 
   312   000FC7                     SSPSTAT         equ	4039	;# 
   313   000FC8                     SSPADD          equ	4040	;# 
   314   000FC9                     SSPBUF          equ	4041	;# 
   315   000FCA                     T2CON           equ	4042	;# 
   316   000FCB                     PR2             equ	4043	;# 
   317   000FCB                     MEMCON          equ	4043	;# 
   318   000FCC                     TMR2            equ	4044	;# 
   319   000FCD                     T1CON           equ	4045	;# 
   320   000FCE                     TMR1            equ	4046	;# 
   321   000FCE                     TMR1L           equ	4046	;# 
   322   000FCF                     TMR1H           equ	4047	;# 
   323   000FD0                     RCON            equ	4048	;# 
   324   000FD1                     WDTCON          equ	4049	;# 
   325   000FD2                     HLVDCON         equ	4050	;# 
   326   000FD2                     LVDCON          equ	4050	;# 
   327   000FD3                     OSCCON          equ	4051	;# 
   328   000FD5                     T0CON           equ	4053	;# 
   329   000FD6                     TMR0            equ	4054	;# 
   330   000FD6                     TMR0L           equ	4054	;# 
   331   000FD7                     TMR0H           equ	4055	;# 
   332   000FD8                     STATUS          equ	4056	;# 
   333   000FD9                     FSR2            equ	4057	;# 
   334   000FD9                     FSR2L           equ	4057	;# 
   335   000FDA                     FSR2H           equ	4058	;# 
   336   000FDB                     PLUSW2          equ	4059	;# 
   337   000FDC                     PREINC2         equ	4060	;# 
   338   000FDD                     POSTDEC2        equ	4061	;# 
   339   000FDE                     POSTINC2        equ	4062	;# 
   340   000FDF                     INDF2           equ	4063	;# 
   341   000FE0                     BSR             equ	4064	;# 
   342   000FE1                     FSR1            equ	4065	;# 
   343   000FE1                     FSR1L           equ	4065	;# 
   344   000FE2                     FSR1H           equ	4066	;# 
   345   000FE3                     PLUSW1          equ	4067	;# 
   346   000FE4                     PREINC1         equ	4068	;# 
   347   000FE5                     POSTDEC1        equ	4069	;# 
   348   000FE6                     POSTINC1        equ	4070	;# 
   349   000FE7                     INDF1           equ	4071	;# 
   350   000FE8                     WREG            equ	4072	;# 
   351   000FE9                     FSR0            equ	4073	;# 
   352   000FE9                     FSR0L           equ	4073	;# 
   353   000FEA                     FSR0H           equ	4074	;# 
   354   000FEB                     PLUSW0          equ	4075	;# 
   355   000FEC                     PREINC0         equ	4076	;# 
   356   000FED                     POSTDEC0        equ	4077	;# 
   357   000FEE                     POSTINC0        equ	4078	;# 
   358   000FEF                     INDF0           equ	4079	;# 
   359   000FF0                     INTCON3         equ	4080	;# 
   360   000FF1                     INTCON2         equ	4081	;# 
   361   000FF2                     INTCON          equ	4082	;# 
   362   000FF3                     PROD            equ	4083	;# 
   363   000FF3                     PRODL           equ	4083	;# 
   364   000FF4                     PRODH           equ	4084	;# 
   365   000FF5                     TABLAT          equ	4085	;# 
   366   000FF6                     TBLPTR          equ	4086	;# 
   367   000FF6                     TBLPTRL         equ	4086	;# 
   368   000FF7                     TBLPTRH         equ	4087	;# 
   369   000FF8                     TBLPTRU         equ	4088	;# 
   370   000FF9                     PCLAT           equ	4089	;# 
   371   000FF9                     PC              equ	4089	;# 
   372   000FF9                     PCL             equ	4089	;# 
   373   000FFA                     PCLATH          equ	4090	;# 
   374   000FFB                     PCLATU          equ	4091	;# 
   375   000FFC                     STKPTR          equ	4092	;# 
   376   000FFD                     TOS             equ	4093	;# 
   377   000FFD                     TOSL            equ	4093	;# 
   378   000FFE                     TOSH            equ	4094	;# 
   379   000FFF                     TOSU            equ	4095	;# 
   380   007CA7                     _TRISC7         set	31911
   381   007CA6                     _TRISC6         set	31910
   382   007CF4                     _TXIF           set	31988
   383   007CED                     _RCIE           set	31981
   384   007CF5                     _RCIF           set	31989
   385   007D5C                     _CREN           set	32092
   386   007D65                     _TXEN           set	32101
   387   007D5F                     _SPEN           set	32095
   388   007D64                     _SYNC           set	32100
   389   007DC3                     _BRG16          set	32195
   390   007D62                     _BRGH           set	32098
   391   007F97                     _GIE            set	32663
   392   007F96                     _PEIE           set	32662
   393   000F8D                     _LATEbits       set	3981
   394   000F89                     _LATAbits       set	3977
   395   000F96                     _TRISEbits      set	3990
   396   000F92                     _TRISAbits      set	3986
   397   000F93                     _TRISBbits      set	3987
   398   000F82                     _PORTCbits      set	3970
   399   000F94                     _TRISCbits      set	3988
   400   000F8A                     _LATBbits       set	3978
   401   000F8C                     _LATD           set	3980
   402   000FAE                     _RCREG          set	4014
   403   000FAD                     _TXREG          set	4013
   404   000FAF                     _SPBRG          set	4015
   405                           
   406                           	psect	mediumconst
   407   007CEA                     __pmediumconst:
   408                           	callstack 0
   409   007CEA  00                 	db	0
   410   007CEB                     STR_3:
   411   007CEB  43                 	db	67	;'C'
   412   007CEC  4F                 	db	79	;'O'
   413   007CED  4E                 	db	78	;'N'
   414   007CEE  4E                 	db	78	;'N'
   415   007CEF  5F                 	db	95	;'_'
   416   007CF0  41                 	db	65	;'A'
   417   007CF1  43                 	db	67	;'C'
   418   007CF2  4B                 	db	75	;'K'
   419   007CF3  0D                 	db	13
   420   007CF4  0A                 	db	10
   421   007CF5  00                 	db	0
   422   007CF6                     STR_16:
   423   007CF6  53                 	db	83	;'S'
   424   007CF7  48                 	db	72	;'H'
   425   007CF8  4F                 	db	79	;'O'
   426   007CF9  57                 	db	87	;'W'
   427   007CFA  5F                 	db	95	;'_'
   428   007CFB  30                 	db	48	;'0'
   429   007CFC  30                 	db	48	;'0'
   430   007CFD  30                 	db	48	;'0'
   431   007CFE  00                 	db	0
   432   007CFF                     STR_4:
   433   007CFF  53                 	db	83	;'S'
   434   007D00  48                 	db	72	;'H'
   435   007D01  4F                 	db	79	;'O'
   436   007D02  57                 	db	87	;'W'
   437   007D03  5F                 	db	95	;'_'
   438   007D04  30                 	db	48	;'0'
   439   007D05  30                 	db	48	;'0'
   440   007D06  31                 	db	49	;'1'
   441   007D07  00                 	db	0
   442   007D08                     STR_6:
   443   007D08  53                 	db	83	;'S'
   444   007D09  48                 	db	72	;'H'
   445   007D0A  4F                 	db	79	;'O'
   446   007D0B  57                 	db	87	;'W'
   447   007D0C  5F                 	db	95	;'_'
   448   007D0D  30                 	db	48	;'0'
   449   007D0E  30                 	db	48	;'0'
   450   007D0F  32                 	db	50	;'2'
   451   007D10  00                 	db	0
   452   007D11                     STR_8:
   453   007D11  53                 	db	83	;'S'
   454   007D12  48                 	db	72	;'H'
   455   007D13  4F                 	db	79	;'O'
   456   007D14  57                 	db	87	;'W'
   457   007D15  5F                 	db	95	;'_'
   458   007D16  30                 	db	48	;'0'
   459   007D17  30                 	db	48	;'0'
   460   007D18  33                 	db	51	;'3'
   461   007D19  00                 	db	0
   462   007D1A                     STR_10:
   463   007D1A  53                 	db	83	;'S'
   464   007D1B  48                 	db	72	;'H'
   465   007D1C  4F                 	db	79	;'O'
   466   007D1D  57                 	db	87	;'W'
   467   007D1E  5F                 	db	95	;'_'
   468   007D1F  30                 	db	48	;'0'
   469   007D20  30                 	db	48	;'0'
   470   007D21  34                 	db	52	;'4'
   471   007D22  00                 	db	0
   472   007D23                     STR_12:
   473   007D23  53                 	db	83	;'S'
   474   007D24  48                 	db	72	;'H'
   475   007D25  4F                 	db	79	;'O'
   476   007D26  57                 	db	87	;'W'
   477   007D27  5F                 	db	95	;'_'
   478   007D28  30                 	db	48	;'0'
   479   007D29  30                 	db	48	;'0'
   480   007D2A  35                 	db	53	;'5'
   481   007D2B  00                 	db	0
   482   007D2C                     STR_14:
   483   007D2C  53                 	db	83	;'S'
   484   007D2D  48                 	db	72	;'H'
   485   007D2E  4F                 	db	79	;'O'
   486   007D2F  57                 	db	87	;'W'
   487   007D30  5F                 	db	95	;'_'
   488   007D31  30                 	db	48	;'0'
   489   007D32  30                 	db	48	;'0'
   490   007D33  36                 	db	54	;'6'
   491   007D34  00                 	db	0
   492   007D35                     STR_1:
   493   007D35  43                 	db	67	;'C'
   494   007D36  4F                 	db	79	;'O'
   495   007D37  4E                 	db	78	;'N'
   496   007D38  4E                 	db	78	;'N'
   497   007D39  5F                 	db	95	;'_'
   498   007D3A  52                 	db	82	;'R'
   499   007D3B  45                 	db	69	;'E'
   500   007D3C  51                 	db	81	;'Q'
   501   007D3D  00                 	db	0
   502   007D35                     STR_2           equ	STR_1
   503   007D2C                     STR_15          equ	STR_14
   504   007D23                     STR_13          equ	STR_12
   505   007D1A                     STR_11          equ	STR_10
   506   007D11                     STR_9           equ	STR_8
   507   007D08                     STR_7           equ	STR_6
   508   007CFF                     STR_5           equ	STR_4
   509   007CF6                     STR_17          equ	STR_16
   510   007D3E  00                 	db	0	; dummy byte at the end
   511   007CEA                     __smallconst    set	__pmediumconst
   512   007CEA                     __mediumconst   set	__pmediumconst
   513   000002                     __activetblptr  equ	2
   514                           
   515                           ; #config settings
   516                           
   517                           	psect	cinit
   518   0004DE                     __pcinit:
   519                           	callstack 0
   520   0004DE                     start_initialization:
   521                           	callstack 0
   522   0004DE                     __initialization:
   523                           	callstack 0
   524                           
   525                           ; Clear objects allocated to COMRAM (32 bytes)
   526   0004DE  EE00  F001         	lfsr	0,__pbssCOMRAM
   527   0004E2  0E20               	movlw	32
   528   0004E4                     clear_0:
   529   0004E4  6AEE               	clrf	postinc0,c
   530   0004E6  06E8               	decf	wreg,f,c
   531   0004E8  E1FD               	bnz	clear_0
   532   0004EA                     end_of_initialization:
   533                           	callstack 0
   534   0004EA                     __end_of__initialization:
   535                           	callstack 0
   536   0004EA  902F               	bcf	int$flags,0,c	;clear compiler interrupt flag (level 1)
   537   0004EC  922F               	bcf	int$flags,1,c	;clear compiler interrupt flag (level 2)
   538   0004EE  0E00               	movlw	low (__Lmediumconst shr (0+16))
   539   0004F0  6EF8               	movwf	tblptru,c
   540   0004F2  0100               	movlb	0
   541   0004F4  EF09  F000         	goto	_main	;jump to C main() function
   542                           
   543                           	psect	bssCOMRAM
   544   000001                     __pbssCOMRAM:
   545                           	callstack 0
   546   000001                     _buffer:
   547                           	callstack 0
   548   000001                     	ds	20
   549   000015                     _uart_rx_index:
   550                           	callstack 0
   551   000015                     	ds	1
   552   000016                     _uart_frame_ready:
   553                           	callstack 0
   554   000016                     	ds	1
   555   000017                     _uart_rx_buffer:
   556                           	callstack 0
   557   000017                     	ds	10
   558                           
   559                           	psect	cstackCOMRAM
   560   000021                     __pcstackCOMRAM:
   561                           	callstack 0
   562   000021                     ??_ISR:
   563                           
   564                           ; 1 bytes @ 0x0
   565   000021                     	ds	2
   566   000023                     ISR@received:
   567                           	callstack 0
   568                           
   569                           ; 1 bytes @ 0x2
   570   000023                     	ds	1
   571   000024                     ?_strchr:
   572                           	callstack 0
   573   000024                     ?_strlen:
   574                           	callstack 0
   575   000024                     ?_strncmp:
   576                           	callstack 0
   577   000024                     latch_data@seg_data:
   578                           	callstack 0
   579   000024                     SelectIO@index:
   580                           	callstack 0
   581   000024                     UART_SendChar@ch:
   582                           	callstack 0
   583   000024                     strchr@s:
   584                           	callstack 0
   585   000024                     strncmp@l:
   586                           	callstack 0
   587   000024                     delay_ms@ms:
   588                           	callstack 0
   589   000024                     strlen@s:
   590                           	callstack 0
   591   000024                     
   592                           ; 1 bytes @ 0x3
   593   000024                     	ds	1
   594   000025                     UART_SendString@str:
   595                           	callstack 0
   596   000025                     strchr@c:
   597                           	callstack 0
   598   000025                     strncmp@r:
   599                           	callstack 0
   600                           
   601                           ; 2 bytes @ 0x4
   602   000025                     	ds	1
   603   000026                     strlen@a:
   604                           	callstack 0
   605   000026                     ??_delay_ms:
   606                           
   607                           ; 1 bytes @ 0x5
   608   000026                     	ds	1
   609   000027                     strncmp@n:
   610                           	callstack 0
   611   000027                     
   612                           ; 1 bytes @ 0x6
   613   000027                     	ds	2
   614   000029                     ??_strncmp:
   615                           
   616                           ; 1 bytes @ 0x8
   617   000029                     	ds	1
   618   00002A                     ?_strstr:
   619                           	callstack 0
   620   00002A                     strstr@h:
   621                           	callstack 0
   622                           
   623                           ; 1 bytes @ 0x9
   624   00002A                     	ds	1
   625   00002B                     strstr@n:
   626                           	callstack 0
   627                           
   628                           ; 2 bytes @ 0xA
   629   00002B                     	ds	2
   630   00002D                     strstr@nl:
   631                           	callstack 0
   632   00002D                     
   633                           ; 1 bytes @ 0xC
   634   00002D                     	ds	2
   635   00002F                     
   636                           ; 1 bytes @ 0xE
   637 ;;
   638 ;;Main: autosize = 0, tempsize = 0, incstack = 0, save=0
   639 ;;
   640 ;; *************** function _main *****************
   641 ;; Defined at:
   642 ;;		line 144 in file "main.c"
   643 ;; Parameters:    Size  Location     Type
   644 ;;		None
   645 ;; Auto vars:     Size  Location     Type
   646 ;;		None
   647 ;; Return value:  Size  Location     Type
   648 ;;                  1    wreg      void 
   649 ;; Registers used:
   650 ;;		wreg, fsr2l, fsr2h, status,2, status,0, tblptrl, tblptrh, tblptru, cstack
   651 ;; Tracked objects:
   652 ;;		On entry : 0/0
   653 ;;		On exit  : 0/0
   654 ;;		Unchanged: 0/0
   655 ;; Data sizes:     COMRAM   BANK0   BANK1   BANK2   BANK3   BANK4   BANK5
   656 ;;      Params:         0       0       0       0       0       0       0
   657 ;;      Locals:         0       0       0       0       0       0       0
   658 ;;      Temps:          0       0       0       0       0       0       0
   659 ;;      Totals:         0       0       0       0       0       0       0
   660 ;;Total ram usage:        0 bytes
   661 ;; Hardware stack levels required when called: 3
   662 ;; This function calls:
   663 ;;		_SelectIO
   664 ;;		_UART_Init
   665 ;;		_UART_SendString
   666 ;;		_delay_ms
   667 ;;		_init_ports
   668 ;;		_latch_data
   669 ;;		_strstr
   670 ;; This function is called by:
   671 ;;		Startup code after reset
   672 ;; This function uses a non-reentrant model
   673 ;;
   674                           
   675                           	psect	text0
   676   000012                     __ptext0:
   677                           	callstack 0
   678   000012                     _main:
   679                           	callstack 28
   680   000012                     
   681                           ;main.c: 146: 
   682   000012  0E01               	movlw	1
   683   000014  6E25               	movwf	(delay_ms@ms+1)^0,c
   684   000016  0EF4               	movlw	244
   685   000018  6E24               	movwf	delay_ms@ms^0,c
   686   00001A  EC3A  F002         	call	_delay_ms	;wreg free
   687   00001E                     
   688                           ;main.c: 148:             }
   689   00001E  EC60  F002         	call	_UART_Init	;wreg free
   690   000022                     
   691                           ;main.c: 151: 
   692   000022  EC7C  F002         	call	_init_ports	;wreg free
   693   000026                     
   694                           ;main.c: 153:             }
   695   000026  0E00               	movlw	0
   696   000028  EC80  F001         	call	_SelectIO
   697   00002C                     
   698                           ;main.c: 154:             else if (strstr((char*)uart_rx_buffer, "SHOW_006"))
   699   00002C  0EFF               	movlw	255
   700   00002E  EC51  F002         	call	_latch_data
   701   000032                     l1196:
   702                           
   703                           ;main.c: 157:                 SelectIO(6);;main.c: 158:             }
   704   000032  5016               	movf	_uart_frame_ready^0,w,c	;volatile
   705   000034  B4D8               	btfsc	status,2,c
   706   000036  EF1F  F000         	goto	u501
   707   00003A  EF21  F000         	goto	u500
   708   00003E                     u501:
   709   00003E  EF19  F000         	goto	l1196
   710   000042                     u500:
   711   000042                     
   712                           ;main.c: 159:             else if (strstr((char*)uart_rx_buffer, "SHOW_000"));main.c: 16
      +                          0:             {
   713   000042  6A16               	clrf	_uart_frame_ready^0,c	;volatile
   714   000044                     
   715                           ;main.c: 162:                 SelectIO(0);
   716   000044  0E17               	movlw	low _uart_rx_buffer
   717   000046  6E2A               	movwf	strstr@h^0,c
   718   000048  0E35               	movlw	low STR_1
   719   00004A  6E2B               	movwf	strstr@n^0,c
   720   00004C  0E7D               	movlw	high STR_1
   721   00004E  6E2C               	movwf	(strstr@n+1)^0,c
   722   000050  EC31  F001         	call	_strstr	;wreg free
   723   000054  0900               	iorlw	0
   724   000056  B4D8               	btfsc	status,2,c
   725   000058  EF30  F000         	goto	u511
   726   00005C  EF32  F000         	goto	u510
   727   000060                     u511:
   728   000060  EF3A  F000         	goto	l1204
   729   000064                     u510:
   730   000064                     
   731                           ;main.c: 163:             };main.c: 164:             uart_rx_index = 0;
   732   000064  0EEB               	movlw	low STR_3
   733   000066  6E25               	movwf	UART_SendString@str^0,c
   734   000068  0E7C               	movlw	high STR_3
   735   00006A  6E26               	movwf	(UART_SendString@str+1)^0,c
   736   00006C  EC1F  F002         	call	_UART_SendString	;wreg free
   737                           
   738                           ;main.c: 165:         }
   739   000070  EFCD  F000         	goto	l1232
   740   000074                     l1204:
   741   000074  0E17               	movlw	low _uart_rx_buffer
   742   000076  6E2A               	movwf	strstr@h^0,c
   743   000078  0EFF               	movlw	low STR_4
   744   00007A  6E2B               	movwf	strstr@n^0,c
   745   00007C  0E7C               	movlw	high STR_4
   746   00007E  6E2C               	movwf	(strstr@n+1)^0,c
   747   000080  EC31  F001         	call	_strstr	;wreg free
   748   000084  0900               	iorlw	0
   749   000086  B4D8               	btfsc	status,2,c
   750   000088  EF48  F000         	goto	u521
   751   00008C  EF4A  F000         	goto	u520
   752   000090                     u521:
   753   000090  EF4F  F000         	goto	l1208
   754   000094                     u520:
   755   000094                     
   756                           ;main.c: 167: }
   757   000094  0E01               	movlw	1
   758   000096  EC80  F001         	call	_SelectIO
   759   00009A  EFCD  F000         	goto	l1232
   760   00009E                     l1208:
   761   00009E  0E17               	movlw	low _uart_rx_buffer
   762   0000A0  6E2A               	movwf	strstr@h^0,c
   763   0000A2  0E08               	movlw	low STR_6
   764   0000A4  6E2B               	movwf	strstr@n^0,c
   765   0000A6  0E7D               	movlw	high STR_6
   766   0000A8  6E2C               	movwf	(strstr@n+1)^0,c
   767   0000AA  EC31  F001         	call	_strstr	;wreg free
   768   0000AE  0900               	iorlw	0
   769   0000B0  B4D8               	btfsc	status,2,c
   770   0000B2  EF5D  F000         	goto	u531
   771   0000B6  EF5F  F000         	goto	u530
   772   0000BA                     u531:
   773   0000BA  EF64  F000         	goto	l1212
   774   0000BE                     u530:
   775   0000BE  0E02               	movlw	2
   776   0000C0  EC80  F001         	call	_SelectIO
   777   0000C4  EFCD  F000         	goto	l1232
   778   0000C8                     l1212:
   779   0000C8  0E17               	movlw	low _uart_rx_buffer
   780   0000CA  6E2A               	movwf	strstr@h^0,c
   781   0000CC  0E11               	movlw	low STR_8
   782   0000CE  6E2B               	movwf	strstr@n^0,c
   783   0000D0  0E7D               	movlw	high STR_8
   784   0000D2  6E2C               	movwf	(strstr@n+1)^0,c
   785   0000D4  EC31  F001         	call	_strstr	;wreg free
   786   0000D8  0900               	iorlw	0
   787   0000DA  B4D8               	btfsc	status,2,c
   788   0000DC  EF72  F000         	goto	u541
   789   0000E0  EF74  F000         	goto	u540
   790   0000E4                     u541:
   791   0000E4  EF79  F000         	goto	l1216
   792   0000E8                     u540:
   793   0000E8  0E03               	movlw	3
   794   0000EA  EC80  F001         	call	_SelectIO
   795   0000EE  EFCD  F000         	goto	l1232
   796   0000F2                     l1216:
   797   0000F2  0E17               	movlw	low _uart_rx_buffer
   798   0000F4  6E2A               	movwf	strstr@h^0,c
   799   0000F6  0E1A               	movlw	low STR_10
   800   0000F8  6E2B               	movwf	strstr@n^0,c
   801   0000FA  0E7D               	movlw	high STR_10
   802   0000FC  6E2C               	movwf	(strstr@n+1)^0,c
   803   0000FE  EC31  F001         	call	_strstr	;wreg free
   804   000102  0900               	iorlw	0
   805   000104  B4D8               	btfsc	status,2,c
   806   000106  EF87  F000         	goto	u551
   807   00010A  EF89  F000         	goto	u550
   808   00010E                     u551:
   809   00010E  EF8E  F000         	goto	l1220
   810   000112                     u550:
   811   000112  0E04               	movlw	4
   812   000114  EC80  F001         	call	_SelectIO
   813   000118  EFCD  F000         	goto	l1232
   814   00011C                     l1220:
   815   00011C  0E17               	movlw	low _uart_rx_buffer
   816   00011E  6E2A               	movwf	strstr@h^0,c
   817   000120  0E23               	movlw	low STR_12
   818   000122  6E2B               	movwf	strstr@n^0,c
   819   000124  0E7D               	movlw	high STR_12
   820   000126  6E2C               	movwf	(strstr@n+1)^0,c
   821   000128  EC31  F001         	call	_strstr	;wreg free
   822   00012C  0900               	iorlw	0
   823   00012E  B4D8               	btfsc	status,2,c
   824   000130  EF9C  F000         	goto	u561
   825   000134  EF9E  F000         	goto	u560
   826   000138                     u561:
   827   000138  EFA3  F000         	goto	l1224
   828   00013C                     u560:
   829   00013C  0E05               	movlw	5
   830   00013E  EC80  F001         	call	_SelectIO
   831   000142  EFCD  F000         	goto	l1232
   832   000146                     l1224:
   833   000146  0E17               	movlw	low _uart_rx_buffer
   834   000148  6E2A               	movwf	strstr@h^0,c
   835   00014A  0E2C               	movlw	low STR_14
   836   00014C  6E2B               	movwf	strstr@n^0,c
   837   00014E  0E7D               	movlw	high STR_14
   838   000150  6E2C               	movwf	(strstr@n+1)^0,c
   839   000152  EC31  F001         	call	_strstr	;wreg free
   840   000156  0900               	iorlw	0
   841   000158  B4D8               	btfsc	status,2,c
   842   00015A  EFB1  F000         	goto	u571
   843   00015E  EFB3  F000         	goto	u570
   844   000162                     u571:
   845   000162  EFB8  F000         	goto	l1228
   846   000166                     u570:
   847   000166  0E06               	movlw	6
   848   000168  EC80  F001         	call	_SelectIO
   849   00016C  EFCD  F000         	goto	l1232
   850   000170                     l1228:
   851   000170  0E17               	movlw	low _uart_rx_buffer
   852   000172  6E2A               	movwf	strstr@h^0,c
   853   000174  0EF6               	movlw	low STR_16
   854   000176  6E2B               	movwf	strstr@n^0,c
   855   000178  0E7C               	movlw	high STR_16
   856   00017A  6E2C               	movwf	(strstr@n+1)^0,c
   857   00017C  EC31  F001         	call	_strstr	;wreg free
   858   000180  0900               	iorlw	0
   859   000182  B4D8               	btfsc	status,2,c
   860   000184  EFC6  F000         	goto	u581
   861   000188  EFC8  F000         	goto	u580
   862   00018C                     u581:
   863   00018C  EFCD  F000         	goto	l80
   864   000190                     u580:
   865   000190  0E00               	movlw	0
   866   000192  EC80  F001         	call	_SelectIO
   867   000196  EFCD  F000         	goto	l1232
   868   00019A                     l80:
   869   00019A                     l1232:
   870   00019A  6A15               	clrf	_uart_rx_index^0,c	;volatile
   871   00019C  EF19  F000         	goto	l1196
   872   0001A0  EF07  F000         	goto	start
   873   0001A4                     __end_of_main:
   874                           	callstack 0
   875                           
   876 ;; *************** function _strstr *****************
   877 ;; Defined at:
   878 ;;		line 4 in file "C:\Program Files\Microchip\xc8\v3.00\pic\sources\c99\common\strstr.c"
   879 ;; Parameters:    Size  Location     Type
   880 ;;  h               1    9[COMRAM] PTR const unsigned char 
   881 ;;		 -> NULL(0), uart_rx_buffer(10), 
   882 ;;  n               2   10[COMRAM] PTR const unsigned char 
   883 ;;		 -> STR_17(9), STR_15(9), STR_13(9), STR_11(9), 
   884 ;;		 -> STR_9(9), STR_7(9), STR_5(9), STR_2(9), 
   885 ;; Auto vars:     Size  Location     Type
   886 ;;  nl              2   12[COMRAM] unsigned int 
   887 ;; Return value:  Size  Location     Type
   888 ;;                  1    9[COMRAM] PTR unsigned char 
   889 ;; Registers used:
   890 ;;		wreg, fsr2l, fsr2h, status,2, status,0, tblptrl, tblptrh, tblptru, cstack
   891 ;; Tracked objects:
   892 ;;		On entry : 0/0
   893 ;;		On exit  : 0/0
   894 ;;		Unchanged: 0/0
   895 ;; Data sizes:     COMRAM   BANK0   BANK1   BANK2   BANK3   BANK4   BANK5
   896 ;;      Params:         3       0       0       0       0       0       0
   897 ;;      Locals:         2       0       0       0       0       0       0
   898 ;;      Temps:          0       0       0       0       0       0       0
   899 ;;      Totals:         5       0       0       0       0       0       0
   900 ;;Total ram usage:        5 bytes
   901 ;; Hardware stack levels used: 1
   902 ;; Hardware stack levels required when called: 2
   903 ;; This function calls:
   904 ;;		_strchr
   905 ;;		_strlen
   906 ;;		_strncmp
   907 ;; This function is called by:
   908 ;;		_main
   909 ;; This function uses a non-reentrant model
   910 ;;
   911                           
   912                           	psect	text1
   913   000262                     __ptext1:
   914                           	callstack 0
   915   000262                     _strstr:
   916                           	callstack 28
   917   000262  502B               	movf	strstr@n^0,w,c
   918   000264  102C               	iorwf	(strstr@n+1)^0,w,c
   919   000266  B4D8               	btfsc	status,2,c
   920   000268  EF38  F001         	goto	u451
   921   00026C  EF3A  F001         	goto	u450
   922   000270                     u451:
   923   000270  EF7E  F001         	goto	l1174
   924   000274                     u450:
   925   000274  C02B  F024         	movff	strstr@n,strlen@s
   926   000278  C02C  F025         	movff	strstr@n+1,strlen@s+1
   927   00027C  ECE5  F001         	call	_strlen	;wreg free
   928   000280  C024  F02D         	movff	?_strlen,strstr@nl
   929   000284  C025  F02E         	movff	?_strlen+1,strstr@nl+1
   930   000288  EF6B  F001         	goto	l1170
   931   00028C                     l1162:
   932   00028C  C02A  F024         	movff	strstr@h,strncmp@l
   933   000290  C02B  F025         	movff	strstr@n,strncmp@r
   934   000294  C02C  F026         	movff	strstr@n+1,strncmp@r+1
   935   000298  C02D  F027         	movff	strstr@nl,strncmp@n
   936   00029C  C02E  F028         	movff	strstr@nl+1,strncmp@n+1
   937   0002A0  ECD2  F000         	call	_strncmp	;wreg free
   938   0002A4  5024               	movf	?_strncmp^0,w,c
   939   0002A6  1025               	iorwf	(?_strncmp+1)^0,w,c
   940   0002A8  A4D8               	btfss	status,2,c
   941   0002AA  EF59  F001         	goto	u461
   942   0002AE  EF5B  F001         	goto	u460
   943   0002B2                     u461:
   944   0002B2  EF5E  F001         	goto	l1168
   945   0002B6                     u460:
   946   0002B6  502A               	movf	strstr@h^0,w,c
   947   0002B8  EF7F  F001         	goto	l836
   948   0002BC                     l1168:
   949   0002BC  282A               	incf	strstr@h^0,w,c
   950   0002BE  6E24               	movwf	strchr@s^0,c
   951   0002C0  C02B  FFF6         	movff	strstr@n,tblptrl
   952   0002C4  C02C  FFF7         	movff	strstr@n+1,tblptrh
   953   0002C8                     	if	0	;tblptru may be non-zero
   954   0002C8                     	endif
   955   0002C8                     	if	0	;tblptru may be non-zero
   956   0002C8                     	endif
   957   0002C8  0008               	tblrd		*
   958   0002CA  50F5               	movf	tablat,w,c
   959   0002CC  6E25               	movwf	strchr@c^0,c
   960   0002CE  6A26               	clrf	(strchr@c+1)^0,c
   961   0002D0  EC02  F002         	call	_strchr	;wreg free
   962   0002D4  6E2A               	movwf	strstr@h^0,c
   963   0002D6                     l1170:
   964   0002D6  502A               	movf	strstr@h^0,w,c
   965   0002D8  B4D8               	btfsc	status,2,c
   966   0002DA  EF71  F001         	goto	u471
   967   0002DE  EF73  F001         	goto	u470
   968   0002E2                     u471:
   969   0002E2  EF7E  F001         	goto	l1174
   970   0002E6                     u470:
   971   0002E6  502A               	movf	strstr@h^0,w,c
   972   0002E8  6ED9               	movwf	fsr2l,c
   973   0002EA  6ADA               	clrf	fsr2h,c
   974   0002EC  50DF               	movf	indf2,w,c
   975   0002EE  A4D8               	btfss	status,2,c
   976   0002F0  EF7C  F001         	goto	u481
   977   0002F4  EF7E  F001         	goto	u480
   978   0002F8                     u481:
   979   0002F8  EF46  F001         	goto	l1162
   980   0002FC                     u480:
   981   0002FC                     l1174:
   982   0002FC  0E00               	movlw	0
   983   0002FE                     l836:
   984   0002FE  0012               	return		;funcret
   985   000300                     __end_of_strstr:
   986                           	callstack 0
   987                           
   988 ;; *************** function _strncmp *****************
   989 ;; Defined at:
   990 ;;		line 3 in file "C:\Program Files\Microchip\xc8\v3.00\pic\sources\c99\common\strncmp.c"
   991 ;; Parameters:    Size  Location     Type
   992 ;;  l               1    3[COMRAM] PTR const unsigned char 
   993 ;;		 -> NULL(0), uart_rx_buffer(10), 
   994 ;;  r               2    4[COMRAM] PTR const unsigned char 
   995 ;;		 -> STR_17(9), STR_15(9), STR_13(9), STR_11(9), 
   996 ;;		 -> STR_9(9), STR_7(9), STR_5(9), STR_2(9), 
   997 ;;  n               2    6[COMRAM] unsigned int 
   998 ;; Auto vars:     Size  Location     Type
   999 ;;		None
  1000 ;; Return value:  Size  Location     Type
  1001 ;;                  2    3[COMRAM] int 
  1002 ;; Registers used:
  1003 ;;		wreg, fsr2l, fsr2h, status,2, status,0, tblptrl, tblptrh, tblptru
  1004 ;; Tracked objects:
  1005 ;;		On entry : 0/0
  1006 ;;		On exit  : 0/0
  1007 ;;		Unchanged: 0/0
  1008 ;; Data sizes:     COMRAM   BANK0   BANK1   BANK2   BANK3   BANK4   BANK5
  1009 ;;      Params:         5       0       0       0       0       0       0
  1010 ;;      Locals:         0       0       0       0       0       0       0
  1011 ;;      Temps:          1       0       0       0       0       0       0
  1012 ;;      Totals:         6       0       0       0       0       0       0
  1013 ;;Total ram usage:        6 bytes
  1014 ;; Hardware stack levels used: 1
  1015 ;; Hardware stack levels required when called: 1
  1016 ;; This function calls:
  1017 ;;		Nothing
  1018 ;; This function is called by:
  1019 ;;		_strstr
  1020 ;; This function uses a non-reentrant model
  1021 ;;
  1022                           
  1023                           	psect	text2
  1024   0001A4                     __ptext2:
  1025                           	callstack 0
  1026   0001A4                     _strncmp:
  1027                           	callstack 28
  1028   0001A4  0627               	decf	strncmp@n^0,f,c
  1029   0001A6  A0D8               	btfss	status,0,c
  1030   0001A8  0628               	decf	(strncmp@n+1)^0,f,c
  1031   0001AA  2827               	incf	strncmp@n^0,w,c
  1032   0001AC  E106               	bnz	u371
  1033   0001AE  2828               	incf	(strncmp@n+1)^0,w,c
  1034   0001B0  A4D8               	btfss	status,2,c
  1035   0001B2  EFDD  F000         	goto	u371
  1036   0001B6  EFDF  F000         	goto	u370
  1037   0001BA                     u371:
  1038   0001BA  EFEB  F000         	goto	l1082
  1039   0001BE                     u370:
  1040   0001BE  0E00               	movlw	0
  1041   0001C0  6E25               	movwf	(?_strncmp+1)^0,c
  1042   0001C2  0E00               	movlw	0
  1043   0001C4  6E24               	movwf	?_strncmp^0,c
  1044   0001C6  EF30  F001         	goto	l855
  1045   0001CA                     l1080:
  1046   0001CA  2A24               	incf	strncmp@l^0,f,c
  1047   0001CC  4A25               	infsnz	strncmp@r^0,f,c
  1048   0001CE  2A26               	incf	(strncmp@r+1)^0,f,c
  1049   0001D0  0627               	decf	strncmp@n^0,f,c
  1050   0001D2  A0D8               	btfss	status,0,c
  1051   0001D4  0628               	decf	(strncmp@n+1)^0,f,c
  1052   0001D6                     l1082:
  1053   0001D6  5024               	movf	strncmp@l^0,w,c
  1054   0001D8  6ED9               	movwf	fsr2l,c
  1055   0001DA  6ADA               	clrf	fsr2h,c
  1056   0001DC  50DF               	movf	indf2,w,c
  1057   0001DE  B4D8               	btfsc	status,2,c
  1058   0001E0  EFF4  F000         	goto	u381
  1059   0001E4  EFF6  F000         	goto	u380
  1060   0001E8                     u381:
  1061   0001E8  EF20  F001         	goto	l1090
  1062   0001EC                     u380:
  1063   0001EC  C025  FFF6         	movff	strncmp@r,tblptrl
  1064   0001F0  C026  FFF7         	movff	strncmp@r+1,tblptrh
  1065   0001F4                     	if	0	;tblptru may be non-zero
  1066   0001F4                     	endif
  1067   0001F4                     	if	0	;tblptru may be non-zero
  1068   0001F4                     	endif
  1069   0001F4  0008               	tblrd		*
  1070   0001F6  50F5               	movf	tablat,w,c
  1071   0001F8  0900               	iorlw	0
  1072   0001FA  B4D8               	btfsc	status,2,c
  1073   0001FC  EF02  F001         	goto	u391
  1074   000200  EF04  F001         	goto	u390
  1075   000204                     u391:
  1076   000204  EF20  F001         	goto	l1090
  1077   000208                     u390:
  1078   000208  5027               	movf	strncmp@n^0,w,c
  1079   00020A  1028               	iorwf	(strncmp@n+1)^0,w,c
  1080   00020C  B4D8               	btfsc	status,2,c
  1081   00020E  EF0B  F001         	goto	u401
  1082   000212  EF0D  F001         	goto	u400
  1083   000216                     u401:
  1084   000216  EF20  F001         	goto	l1090
  1085   00021A                     u400:
  1086   00021A  5024               	movf	strncmp@l^0,w,c
  1087   00021C  6ED9               	movwf	fsr2l,c
  1088   00021E  6ADA               	clrf	fsr2h,c
  1089   000220  50DF               	movf	indf2,w,c
  1090   000222  6E29               	movwf	??_strncmp^0,c
  1091   000224  C025  FFF6         	movff	strncmp@r,tblptrl
  1092   000228  C026  FFF7         	movff	strncmp@r+1,tblptrh
  1093   00022C                     	if	0	;tblptru may be non-zero
  1094   00022C                     	endif
  1095   00022C                     	if	0	;tblptru may be non-zero
  1096   00022C                     	endif
  1097   00022C  0008               	tblrd		*
  1098   00022E  50F5               	movf	tablat,w,c
  1099   000230  1829               	xorwf	??_strncmp^0,w,c
  1100   000232  B4D8               	btfsc	status,2,c
  1101   000234  EF1E  F001         	goto	u411
  1102   000238  EF20  F001         	goto	u410
  1103   00023C                     u411:
  1104   00023C  EFE5  F000         	goto	l1080
  1105   000240                     u410:
  1106   000240                     l1090:
  1107   000240  5024               	movf	strncmp@l^0,w,c
  1108   000242  6ED9               	movwf	fsr2l,c
  1109   000244  6ADA               	clrf	fsr2h,c
  1110   000246  50DF               	movf	indf2,w,c
  1111   000248  6E29               	movwf	??_strncmp^0,c
  1112   00024A  C025  FFF6         	movff	strncmp@r,tblptrl
  1113   00024E  C026  FFF7         	movff	strncmp@r+1,tblptrh
  1114   000252                     	if	0	;tblptru may be non-zero
  1115   000252                     	endif
  1116   000252                     	if	0	;tblptru may be non-zero
  1117   000252                     	endif
  1118   000252  0008               	tblrd		*
  1119   000254  50F5               	movf	tablat,w,c
  1120   000256  5C29               	subwf	??_strncmp^0,w,c
  1121   000258  6E24               	movwf	?_strncmp^0,c
  1122   00025A  6A25               	clrf	(?_strncmp+1)^0,c
  1123   00025C  A0D8               	btfss	status,0,c
  1124   00025E  0625               	decf	(?_strncmp+1)^0,f,c
  1125   000260                     l855:
  1126   000260  0012               	return		;funcret
  1127   000262                     __end_of_strncmp:
  1128                           	callstack 0
  1129                           
  1130 ;; *************** function _strlen *****************
  1131 ;; Defined at:
  1132 ;;		line 5 in file "C:\Program Files\Microchip\xc8\v3.00\pic\sources\c99\common\strlen.c"
  1133 ;; Parameters:    Size  Location     Type
  1134 ;;  s               2    3[COMRAM] PTR const unsigned char 
  1135 ;;		 -> STR_17(9), STR_15(9), STR_13(9), STR_11(9), 
  1136 ;;		 -> STR_9(9), STR_7(9), STR_5(9), STR_2(9), 
  1137 ;; Auto vars:     Size  Location     Type
  1138 ;;  a               2    5[COMRAM] PTR const unsigned char 
  1139 ;;		 -> STR_17(9), STR_15(9), STR_13(9), STR_11(9), 
  1140 ;;		 -> STR_9(9), STR_7(9), STR_5(9), STR_2(9), 
  1141 ;; Return value:  Size  Location     Type
  1142 ;;                  2    3[COMRAM] unsigned int 
  1143 ;; Registers used:
  1144 ;;		wreg, status,2, status,0, tblptrl, tblptrh, tblptru
  1145 ;; Tracked objects:
  1146 ;;		On entry : 0/0
  1147 ;;		On exit  : 0/0
  1148 ;;		Unchanged: 0/0
  1149 ;; Data sizes:     COMRAM   BANK0   BANK1   BANK2   BANK3   BANK4   BANK5
  1150 ;;      Params:         2       0       0       0       0       0       0
  1151 ;;      Locals:         2       0       0       0       0       0       0
  1152 ;;      Temps:          0       0       0       0       0       0       0
  1153 ;;      Totals:         4       0       0       0       0       0       0
  1154 ;;Total ram usage:        4 bytes
  1155 ;; Hardware stack levels used: 1
  1156 ;; Hardware stack levels required when called: 1
  1157 ;; This function calls:
  1158 ;;		Nothing
  1159 ;; This function is called by:
  1160 ;;		_strstr
  1161 ;; This function uses a non-reentrant model
  1162 ;;
  1163                           
  1164                           	psect	text3
  1165   0003CA                     __ptext3:
  1166                           	callstack 0
  1167   0003CA                     _strlen:
  1168                           	callstack 28
  1169   0003CA  C024  F026         	movff	strlen@s,strlen@a
  1170   0003CE  C025  F027         	movff	strlen@s+1,strlen@a+1
  1171   0003D2  EFED  F001         	goto	l1068
  1172   0003D6                     l1066:
  1173   0003D6  4A24               	infsnz	strlen@s^0,f,c
  1174   0003D8  2A25               	incf	(strlen@s+1)^0,f,c
  1175   0003DA                     l1068:
  1176   0003DA  C024  FFF6         	movff	strlen@s,tblptrl
  1177   0003DE  C025  FFF7         	movff	strlen@s+1,tblptrh
  1178   0003E2                     	if	0	;tblptru may be non-zero
  1179   0003E2                     	endif
  1180   0003E2                     	if	0	;tblptru may be non-zero
  1181   0003E2                     	endif
  1182   0003E2  0008               	tblrd		*
  1183   0003E4  50F5               	movf	tablat,w,c
  1184   0003E6  0900               	iorlw	0
  1185   0003E8  A4D8               	btfss	status,2,c
  1186   0003EA  EFF9  F001         	goto	u361
  1187   0003EE  EFFB  F001         	goto	u360
  1188   0003F2                     u361:
  1189   0003F2  EFEB  F001         	goto	l1066
  1190   0003F6                     u360:
  1191   0003F6  5026               	movf	strlen@a^0,w,c
  1192   0003F8  5C24               	subwf	strlen@s^0,w,c
  1193   0003FA  6E24               	movwf	?_strlen^0,c
  1194   0003FC  5027               	movf	(strlen@a+1)^0,w,c
  1195   0003FE  5825               	subwfb	(strlen@s+1)^0,w,c
  1196   000400  6E25               	movwf	(?_strlen+1)^0,c
  1197   000402  0012               	return		;funcret
  1198   000404                     __end_of_strlen:
  1199                           	callstack 0
  1200                           
  1201 ;; *************** function _strchr *****************
  1202 ;; Defined at:
  1203 ;;		line 3 in file "C:\Program Files\Microchip\xc8\v3.00\pic\sources\c99\common\strchr.c"
  1204 ;; Parameters:    Size  Location     Type
  1205 ;;  s               1    3[COMRAM] PTR const unsigned char 
  1206 ;;		 -> NULL(0), uart_rx_buffer(10), 
  1207 ;;  c               2    4[COMRAM] int 
  1208 ;; Auto vars:     Size  Location     Type
  1209 ;;		None
  1210 ;; Return value:  Size  Location     Type
  1211 ;;                  1    3[COMRAM] PTR unsigned char 
  1212 ;; Registers used:
  1213 ;;		wreg, fsr2l, fsr2h, status,2, status,0
  1214 ;; Tracked objects:
  1215 ;;		On entry : 0/0
  1216 ;;		On exit  : 0/0
  1217 ;;		Unchanged: 0/0
  1218 ;; Data sizes:     COMRAM   BANK0   BANK1   BANK2   BANK3   BANK4   BANK5
  1219 ;;      Params:         3       0       0       0       0       0       0
  1220 ;;      Locals:         0       0       0       0       0       0       0
  1221 ;;      Temps:          1       0       0       0       0       0       0
  1222 ;;      Totals:         4       0       0       0       0       0       0
  1223 ;;Total ram usage:        4 bytes
  1224 ;; Hardware stack levels used: 1
  1225 ;; Hardware stack levels required when called: 1
  1226 ;; This function calls:
  1227 ;;		Nothing
  1228 ;; This function is called by:
  1229 ;;		_strstr
  1230 ;; This function uses a non-reentrant model
  1231 ;;
  1232                           
  1233                           	psect	text4
  1234   000404                     __ptext4:
  1235                           	callstack 0
  1236   000404                     _strchr:
  1237                           	callstack 28
  1238   000404                     l842:
  1239   000404  5024               	movf	strchr@s^0,w,c
  1240   000406  6ED9               	movwf	fsr2l,c
  1241   000408  6ADA               	clrf	fsr2h,c
  1242   00040A  5025               	movf	strchr@c^0,w,c
  1243   00040C  18DE               	xorwf	postinc2,w,c
  1244   00040E  A4D8               	btfss	status,2,c
  1245   000410  EF0C  F002         	goto	u421
  1246   000414  EF0E  F002         	goto	u420
  1247   000418                     u421:
  1248   000418  EF11  F002         	goto	l1100
  1249   00041C                     u420:
  1250   00041C  5024               	movf	strchr@s^0,w,c
  1251   00041E  EF1E  F002         	goto	l844
  1252   000422                     l1100:
  1253   000422  2A24               	incf	strchr@s^0,f,c
  1254   000424  0424               	decf	strchr@s^0,w,c
  1255   000426  6ED9               	movwf	fsr2l,c
  1256   000428  6ADA               	clrf	fsr2h,c
  1257   00042A  50DF               	movf	indf2,w,c
  1258   00042C  A4D8               	btfss	status,2,c
  1259   00042E  EF1B  F002         	goto	u431
  1260   000432  EF1D  F002         	goto	u430
  1261   000436                     u431:
  1262   000436  EF02  F002         	goto	l842
  1263   00043A                     u430:
  1264   00043A  0E00               	movlw	0
  1265   00043C                     l844:
  1266   00043C  0012               	return		;funcret
  1267   00043E                     __end_of_strchr:
  1268                           	callstack 0
  1269                           
  1270 ;; *************** function _latch_data *****************
  1271 ;; Defined at:
  1272 ;;		line 45 in file "main.c"
  1273 ;; Parameters:    Size  Location     Type
  1274 ;;  seg_data        1    wreg     unsigned char 
  1275 ;; Auto vars:     Size  Location     Type
  1276 ;;  seg_data        1    3[COMRAM] unsigned char 
  1277 ;; Return value:  Size  Location     Type
  1278 ;;                  1    wreg      void 
  1279 ;; Registers used:
  1280 ;;		wreg
  1281 ;; Tracked objects:
  1282 ;;		On entry : 0/0
  1283 ;;		On exit  : 0/0
  1284 ;;		Unchanged: 0/0
  1285 ;; Data sizes:     COMRAM   BANK0   BANK1   BANK2   BANK3   BANK4   BANK5
  1286 ;;      Params:         0       0       0       0       0       0       0
  1287 ;;      Locals:         1       0       0       0       0       0       0
  1288 ;;      Temps:          0       0       0       0       0       0       0
  1289 ;;      Totals:         1       0       0       0       0       0       0
  1290 ;;Total ram usage:        1 bytes
  1291 ;; Hardware stack levels used: 1
  1292 ;; Hardware stack levels required when called: 1
  1293 ;; This function calls:
  1294 ;;		Nothing
  1295 ;; This function is called by:
  1296 ;;		_main
  1297 ;; This function uses a non-reentrant model
  1298 ;;
  1299                           
  1300                           	psect	text5
  1301   0004A2                     __ptext5:
  1302                           	callstack 0
  1303   0004A2                     _latch_data:
  1304                           	callstack 29
  1305                           
  1306                           ;incstack = 0
  1307                           ;latch_data@seg_data stored from wreg
  1308   0004A2  6E24               	movwf	latch_data@seg_data^0,c
  1309   0004A4                     
  1310                           ;main.c: 45: ;main.c: 46: void init_ports(void);main.c: 48: 
  1311   0004A4  C024  FF8C         	movff	latch_data@seg_data,3980	;volatile
  1312   0004A8                     
  1313                           ;main.c: 51: 
  1314   0004A8  928A               	bcf	138,1,c	;volatile
  1315   0004AA                     
  1316                           ;main.c: 52: 
  1317   0004AA  0E08               	movlw	8
  1318   0004AC                     u627:
  1319   0004AC  2EE8               	decfsz	wreg,f,c
  1320   0004AE  D7FE               	bra	u627
  1321   0004B0  0000               	nop	
  1322   0004B2                     
  1323                           ;main.c: 53: 
  1324   0004B2  828A               	bsf	138,1,c	;volatile
  1325   0004B4                     
  1326                           ;main.c: 54:     TRISAbits.TRISA0 = 0;
  1327   0004B4  0E08               	movlw	8
  1328   0004B6                     u637:
  1329   0004B6  2EE8               	decfsz	wreg,f,c
  1330   0004B8  D7FE               	bra	u637
  1331   0004BA  0000               	nop	
  1332   0004BC                     
  1333                           ;main.c: 55:     TRISAbits.TRISA1 = 0;
  1334   0004BC  928A               	bcf	138,1,c	;volatile
  1335   0004BE  0012               	return		;funcret
  1336   0004C0                     __end_of_latch_data:
  1337                           	callstack 0
  1338                           
  1339 ;; *************** function _init_ports *****************
  1340 ;; Defined at:
  1341 ;;		line 83 in file "main.c"
  1342 ;; Parameters:    Size  Location     Type
  1343 ;;		None
  1344 ;; Auto vars:     Size  Location     Type
  1345 ;;		None
  1346 ;; Return value:  Size  Location     Type
  1347 ;;                  1    wreg      void 
  1348 ;; Registers used:
  1349 ;;		cstack
  1350 ;; Tracked objects:
  1351 ;;		On entry : 0/0
  1352 ;;		On exit  : 0/0
  1353 ;;		Unchanged: 0/0
  1354 ;; Data sizes:     COMRAM   BANK0   BANK1   BANK2   BANK3   BANK4   BANK5
  1355 ;;      Params:         0       0       0       0       0       0       0
  1356 ;;      Locals:         0       0       0       0       0       0       0
  1357 ;;      Temps:          0       0       0       0       0       0       0
  1358 ;;      Totals:         0       0       0       0       0       0       0
  1359 ;;Total ram usage:        0 bytes
  1360 ;; Hardware stack levels used: 1
  1361 ;; Hardware stack levels required when called: 2
  1362 ;; This function calls:
  1363 ;;		_init_inputs_RC0_to_RC5
  1364 ;; This function is called by:
  1365 ;;		_main
  1366 ;; This function uses a non-reentrant model
  1367 ;;
  1368                           
  1369                           	psect	text6
  1370   0004F8                     __ptext6:
  1371                           	callstack 0
  1372   0004F8                     _init_ports:
  1373                           	callstack 28
  1374   0004F8                     
  1375                           ;main.c: 87:             LATAbits.LATA2 = 1;
  1376   0004F8  9293               	bcf	147,1,c	;volatile
  1377                           
  1378                           ;main.c: 91:             break;
  1379   0004FA  9092               	bcf	146,0,c	;volatile
  1380                           
  1381                           ;main.c: 92: 
  1382   0004FC  9292               	bcf	146,1,c	;volatile
  1383                           
  1384                           ;main.c: 93:         case 2:
  1385   0004FE  9492               	bcf	146,2,c	;volatile
  1386                           
  1387                           ;main.c: 94:             LATEbits.LATE0 = 1;
  1388   000500  9692               	bcf	146,3,c	;volatile
  1389                           
  1390                           ;main.c: 95:             break;
  1391   000502  9A92               	bcf	146,5,c	;volatile
  1392                           
  1393                           ;main.c: 96: 
  1394   000504  9096               	bcf	150,0,c	;volatile
  1395                           
  1396                           ;main.c: 98:             LATAbits.LATA5 = 1;
  1397   000506  928A               	bcf	138,1,c	;volatile
  1398   000508                     
  1399                           ;main.c: 100:         default:
  1400   000508  EC92  F002         	call	_init_inputs_RC0_to_RC5	;wreg free
  1401   00050C  0012               	return		;funcret
  1402   00050E                     __end_of_init_ports:
  1403                           	callstack 0
  1404                           
  1405 ;; *************** function _init_inputs_RC0_to_RC5 *****************
  1406 ;; Defined at:
  1407 ;;		line 58 in file "main.c"
  1408 ;; Parameters:    Size  Location     Type
  1409 ;;		None
  1410 ;; Auto vars:     Size  Location     Type
  1411 ;;		None
  1412 ;; Return value:  Size  Location     Type
  1413 ;;                  1    wreg      void 
  1414 ;; Registers used:
  1415 ;;		None
  1416 ;; Tracked objects:
  1417 ;;		On entry : 0/0
  1418 ;;		On exit  : 0/0
  1419 ;;		Unchanged: 0/0
  1420 ;; Data sizes:     COMRAM   BANK0   BANK1   BANK2   BANK3   BANK4   BANK5
  1421 ;;      Params:         0       0       0       0       0       0       0
  1422 ;;      Locals:         0       0       0       0       0       0       0
  1423 ;;      Temps:          0       0       0       0       0       0       0
  1424 ;;      Totals:         0       0       0       0       0       0       0
  1425 ;;Total ram usage:        0 bytes
  1426 ;; Hardware stack levels used: 1
  1427 ;; Hardware stack levels required when called: 1
  1428 ;; This function calls:
  1429 ;;		Nothing
  1430 ;; This function is called by:
  1431 ;;		_init_ports
  1432 ;; This function uses a non-reentrant model
  1433 ;;
  1434                           
  1435                           	psect	text7
  1436   000524                     __ptext7:
  1437                           	callstack 0
  1438   000524                     _init_inputs_RC0_to_RC5:
  1439                           	callstack 28
  1440   000524                     
  1441                           ;main.c: 60: 
  1442   000524  8094               	bsf	148,0,c	;volatile
  1443                           
  1444                           ;main.c: 61:     LATBbits.LATB1 = 0;
  1445   000526  8294               	bsf	148,1,c	;volatile
  1446                           
  1447                           ;main.c: 62: 
  1448   000528  8494               	bsf	148,2,c	;volatile
  1449                           
  1450                           ;main.c: 63:     init_inputs_RC0_to_RC5();
  1451   00052A  8694               	bsf	148,3,c	;volatile
  1452                           
  1453                           ;main.c: 64: }
  1454   00052C  8894               	bsf	148,4,c	;volatile
  1455                           
  1456                           ;main.c: 65: 
  1457   00052E  8A94               	bsf	148,5,c	;volatile
  1458   000530  0012               	return		;funcret
  1459   000532                     __end_of_init_inputs_RC0_to_RC5:
  1460                           	callstack 0
  1461                           
  1462 ;; *************** function _delay_ms *****************
  1463 ;; Defined at:
  1464 ;;		line 37 in file "main.c"
  1465 ;; Parameters:    Size  Location     Type
  1466 ;;  ms              2    3[COMRAM] unsigned int 
  1467 ;; Auto vars:     Size  Location     Type
  1468 ;;		None
  1469 ;; Return value:  Size  Location     Type
  1470 ;;                  1    wreg      void 
  1471 ;; Registers used:
  1472 ;;		wreg, status,2, status,0
  1473 ;; Tracked objects:
  1474 ;;		On entry : 0/0
  1475 ;;		On exit  : 0/0
  1476 ;;		Unchanged: 0/0
  1477 ;; Data sizes:     COMRAM   BANK0   BANK1   BANK2   BANK3   BANK4   BANK5
  1478 ;;      Params:         2       0       0       0       0       0       0
  1479 ;;      Locals:         0       0       0       0       0       0       0
  1480 ;;      Temps:          1       0       0       0       0       0       0
  1481 ;;      Totals:         3       0       0       0       0       0       0
  1482 ;;Total ram usage:        3 bytes
  1483 ;; Hardware stack levels used: 1
  1484 ;; Hardware stack levels required when called: 1
  1485 ;; This function calls:
  1486 ;;		Nothing
  1487 ;; This function is called by:
  1488 ;;		_main
  1489 ;; This function uses a non-reentrant model
  1490 ;;
  1491                           
  1492                           	psect	text8
  1493   000474                     __ptext8:
  1494                           	callstack 0
  1495   000474                     _delay_ms:
  1496                           	callstack 29
  1497   000474                     
  1498                           ;main.c: 37:     result |= (PORTCbits.RC2 << 2);;main.c: 38:     result |= (PORTCbits.RC
      +                          3 << 3);;main.c: 39:     result |= (PORTCbits.RC4 << 4);
  1499   000474  EF43  F002         	goto	l1110
  1500   000478                     l1108:
  1501                           
  1502                           ;main.c: 40:     result |= (PORTCbits.RC5 << 5);;main.c: 41: 
  1503   000478  0E04               	movlw	4
  1504   00047A  6E26               	movwf	??_delay_ms^0,c
  1505   00047C  0E3E               	movlw	62
  1506   00047E                     u647:
  1507   00047E  2EE8               	decfsz	wreg,f,c
  1508   000480  D7FE               	bra	u647
  1509   000482  2E26               	decfsz	??_delay_ms^0,f,c
  1510   000484  D7FC               	bra	u647
  1511   000486                     l1110:
  1512                           
  1513                           ;main.c: 39:     result |= (PORTCbits.RC4 << 4);
  1514   000486  0624               	decf	delay_ms@ms^0,f,c
  1515   000488  A0D8               	btfss	status,0,c
  1516   00048A  0625               	decf	(delay_ms@ms+1)^0,f,c
  1517   00048C  2824               	incf	delay_ms@ms^0,w,c
  1518   00048E  E106               	bnz	u441
  1519   000490  2825               	incf	(delay_ms@ms+1)^0,w,c
  1520   000492  A4D8               	btfss	status,2,c
  1521   000494  EF4E  F002         	goto	u441
  1522   000498  EF50  F002         	goto	u440
  1523   00049C                     u441:
  1524   00049C  EF3C  F002         	goto	l1108
  1525   0004A0                     u440:
  1526   0004A0  0012               	return		;funcret
  1527   0004A2                     __end_of_delay_ms:
  1528                           	callstack 0
  1529                           
  1530 ;; *************** function _UART_SendString *****************
  1531 ;; Defined at:
  1532 ;;		line 44 in file "u_uart.c"
  1533 ;; Parameters:    Size  Location     Type
  1534 ;;  str             2    4[COMRAM] PTR const unsigned char 
  1535 ;;		 -> STR_3(11), 
  1536 ;; Auto vars:     Size  Location     Type
  1537 ;;		None
  1538 ;; Return value:  Size  Location     Type
  1539 ;;                  1    wreg      void 
  1540 ;; Registers used:
  1541 ;;		wreg, status,2, status,0, tblptrl, tblptrh, tblptru, cstack
  1542 ;; Tracked objects:
  1543 ;;		On entry : 0/0
  1544 ;;		On exit  : 0/0
  1545 ;;		Unchanged: 0/0
  1546 ;; Data sizes:     COMRAM   BANK0   BANK1   BANK2   BANK3   BANK4   BANK5
  1547 ;;      Params:         2       0       0       0       0       0       0
  1548 ;;      Locals:         0       0       0       0       0       0       0
  1549 ;;      Temps:          0       0       0       0       0       0       0
  1550 ;;      Totals:         2       0       0       0       0       0       0
  1551 ;;Total ram usage:        2 bytes
  1552 ;; Hardware stack levels used: 1
  1553 ;; Hardware stack levels required when called: 2
  1554 ;; This function calls:
  1555 ;;		_UART_SendChar
  1556 ;; This function is called by:
  1557 ;;		_main
  1558 ;; This function uses a non-reentrant model
  1559 ;;
  1560                           
  1561                           	psect	text9
  1562   00043E                     __ptext9:
  1563                           	callstack 0
  1564   00043E                     _UART_SendString:
  1565                           	callstack 28
  1566   00043E                     
  1567                           ;u_uart.c: 44: void UART_SendString(const char* str);u_uart.c: 45: {;u_uart.c: 46:     w
      +                          hile (*str)
  1568   00043E  EF2B  F002         	goto	l1184
  1569   000442                     l1180:
  1570                           
  1571                           ;u_uart.c: 47:         UART_SendChar(*str++);
  1572   000442  C025  FFF6         	movff	UART_SendString@str,tblptrl
  1573   000446  C026  FFF7         	movff	UART_SendString@str+1,tblptrh
  1574   00044A                     	if	0	;tblptru may be non-zero
  1575   00044A                     	endif
  1576   00044A                     	if	0	;tblptru may be non-zero
  1577   00044A                     	endif
  1578   00044A  0008               	tblrd		*
  1579   00044C  50F5               	movf	tablat,w,c
  1580   00044E  EC87  F002         	call	_UART_SendChar
  1581   000452  4A25               	infsnz	UART_SendString@str^0,f,c
  1582   000454  2A26               	incf	(UART_SendString@str+1)^0,f,c
  1583   000456                     l1184:
  1584                           
  1585                           ;u_uart.c: 46:     while (*str)
  1586   000456  C025  FFF6         	movff	UART_SendString@str,tblptrl
  1587   00045A  C026  FFF7         	movff	UART_SendString@str+1,tblptrh
  1588   00045E                     	if	0	;tblptru may be non-zero
  1589   00045E                     	endif
  1590   00045E                     	if	0	;tblptru may be non-zero
  1591   00045E                     	endif
  1592   00045E  0008               	tblrd		*
  1593   000460  50F5               	movf	tablat,w,c
  1594   000462  0900               	iorlw	0
  1595   000464  A4D8               	btfss	status,2,c
  1596   000466  EF37  F002         	goto	u491
  1597   00046A  EF39  F002         	goto	u490
  1598   00046E                     u491:
  1599   00046E  EF21  F002         	goto	l1180
  1600   000472                     u490:
  1601   000472  0012               	return		;funcret
  1602   000474                     __end_of_UART_SendString:
  1603                           	callstack 0
  1604                           
  1605 ;; *************** function _UART_SendChar *****************
  1606 ;; Defined at:
  1607 ;;		line 37 in file "u_uart.c"
  1608 ;; Parameters:    Size  Location     Type
  1609 ;;  ch              1    wreg     unsigned char 
  1610 ;; Auto vars:     Size  Location     Type
  1611 ;;  ch              1    3[COMRAM] unsigned char 
  1612 ;; Return value:  Size  Location     Type
  1613 ;;                  1    wreg      void 
  1614 ;; Registers used:
  1615 ;;		wreg
  1616 ;; Tracked objects:
  1617 ;;		On entry : 0/0
  1618 ;;		On exit  : 0/0
  1619 ;;		Unchanged: 0/0
  1620 ;; Data sizes:     COMRAM   BANK0   BANK1   BANK2   BANK3   BANK4   BANK5
  1621 ;;      Params:         0       0       0       0       0       0       0
  1622 ;;      Locals:         1       0       0       0       0       0       0
  1623 ;;      Temps:          0       0       0       0       0       0       0
  1624 ;;      Totals:         1       0       0       0       0       0       0
  1625 ;;Total ram usage:        1 bytes
  1626 ;; Hardware stack levels used: 1
  1627 ;; Hardware stack levels required when called: 1
  1628 ;; This function calls:
  1629 ;;		Nothing
  1630 ;; This function is called by:
  1631 ;;		_UART_SendString
  1632 ;; This function uses a non-reentrant model
  1633 ;;
  1634                           
  1635                           	psect	text10
  1636   00050E                     __ptext10:
  1637                           	callstack 0
  1638   00050E                     _UART_SendChar:
  1639                           	callstack 28
  1640                           
  1641                           ;incstack = 0
  1642                           ;UART_SendChar@ch stored from wreg
  1643   00050E  6E24               	movwf	UART_SendChar@ch^0,c
  1644   000510                     l132:
  1645                           
  1646                           ;u_uart.c: 39:     while (!TXIF)
  1647   000510  A89E               	btfss	3998,4,c	;volatile
  1648   000512  EF8D  F002         	goto	u351
  1649   000516  EF8F  F002         	goto	u350
  1650   00051A                     u351:
  1651   00051A  EF88  F002         	goto	l132
  1652   00051E                     u350:
  1653   00051E                     
  1654                           ;u_uart.c: 41:     TXREG = ch;
  1655   00051E  C024  FFAD         	movff	UART_SendChar@ch,4013	;volatile
  1656   000522  0012               	return		;funcret
  1657   000524                     __end_of_UART_SendChar:
  1658                           	callstack 0
  1659                           
  1660 ;; *************** function _UART_Init *****************
  1661 ;; Defined at:
  1662 ;;		line 17 in file "u_uart.c"
  1663 ;; Parameters:    Size  Location     Type
  1664 ;;		None
  1665 ;; Auto vars:     Size  Location     Type
  1666 ;;		None
  1667 ;; Return value:  Size  Location     Type
  1668 ;;                  1    wreg      void 
  1669 ;; Registers used:
  1670 ;;		wreg, status,2
  1671 ;; Tracked objects:
  1672 ;;		On entry : 0/0
  1673 ;;		On exit  : 0/0
  1674 ;;		Unchanged: 0/0
  1675 ;; Data sizes:     COMRAM   BANK0   BANK1   BANK2   BANK3   BANK4   BANK5
  1676 ;;      Params:         0       0       0       0       0       0       0
  1677 ;;      Locals:         0       0       0       0       0       0       0
  1678 ;;      Temps:          0       0       0       0       0       0       0
  1679 ;;      Totals:         0       0       0       0       0       0       0
  1680 ;;Total ram usage:        0 bytes
  1681 ;; Hardware stack levels used: 1
  1682 ;; Hardware stack levels required when called: 1
  1683 ;; This function calls:
  1684 ;;		Nothing
  1685 ;; This function is called by:
  1686 ;;		_main
  1687 ;; This function uses a non-reentrant model
  1688 ;;
  1689                           
  1690                           	psect	text11
  1691   0004C0                     __ptext11:
  1692                           	callstack 0
  1693   0004C0                     _UART_Init:
  1694                           	callstack 29
  1695   0004C0                     
  1696                           ;u_uart.c: 19:     TRISC6 = 0;
  1697   0004C0  9C94               	bcf	3988,6,c	;volatile
  1698                           
  1699                           ;u_uart.c: 20:     TRISC7 = 1;
  1700   0004C2  8E94               	bsf	3988,7,c	;volatile
  1701   0004C4                     
  1702                           ;u_uart.c: 22:     SPBRG = 15;
  1703   0004C4  0E0F               	movlw	15
  1704   0004C6  6EAF               	movwf	175,c	;volatile
  1705   0004C8                     
  1706                           ;u_uart.c: 23:     BRGH = 0;
  1707   0004C8  94AC               	bcf	4012,2,c	;volatile
  1708   0004CA                     
  1709                           ;u_uart.c: 24:     BRG16 = 0;
  1710   0004CA  96B8               	bcf	4024,3,c	;volatile
  1711   0004CC                     
  1712                           ;u_uart.c: 26:     SYNC = 0;
  1713   0004CC  98AC               	bcf	4012,4,c	;volatile
  1714   0004CE                     
  1715                           ;u_uart.c: 27:     SPEN = 1;
  1716   0004CE  8EAB               	bsf	4011,7,c	;volatile
  1717   0004D0                     
  1718                           ;u_uart.c: 28:     TXEN = 1;
  1719   0004D0  8AAC               	bsf	4012,5,c	;volatile
  1720   0004D2                     
  1721                           ;u_uart.c: 29:     CREN = 1;
  1722   0004D2  88AB               	bsf	4011,4,c	;volatile
  1723   0004D4                     
  1724                           ;u_uart.c: 31:     RCIF = 0;
  1725   0004D4  9A9E               	bcf	3998,5,c	;volatile
  1726   0004D6                     
  1727                           ;u_uart.c: 32:     RCIE = 1;
  1728   0004D6  8A9D               	bsf	3997,5,c	;volatile
  1729   0004D8                     
  1730                           ;u_uart.c: 33:     PEIE = 1;
  1731   0004D8  8CF2               	bsf	4082,6,c	;volatile
  1732   0004DA                     
  1733                           ;u_uart.c: 34:     GIE = 1;
  1734   0004DA  8EF2               	bsf	4082,7,c	;volatile
  1735   0004DC  0012               	return		;funcret
  1736   0004DE                     __end_of_UART_Init:
  1737                           	callstack 0
  1738                           
  1739 ;; *************** function _SelectIO *****************
  1740 ;; Defined at:
  1741 ;;		line 104 in file "main.c"
  1742 ;; Parameters:    Size  Location     Type
  1743 ;;  index           1    wreg     unsigned char 
  1744 ;; Auto vars:     Size  Location     Type
  1745 ;;  index           1    3[COMRAM] unsigned char 
  1746 ;; Return value:  Size  Location     Type
  1747 ;;                  1    wreg      void 
  1748 ;; Registers used:
  1749 ;;		wreg, status,2, status,0
  1750 ;; Tracked objects:
  1751 ;;		On entry : 0/0
  1752 ;;		On exit  : 0/0
  1753 ;;		Unchanged: 0/0
  1754 ;; Data sizes:     COMRAM   BANK0   BANK1   BANK2   BANK3   BANK4   BANK5
  1755 ;;      Params:         0       0       0       0       0       0       0
  1756 ;;      Locals:         1       0       0       0       0       0       0
  1757 ;;      Temps:          0       0       0       0       0       0       0
  1758 ;;      Totals:         1       0       0       0       0       0       0
  1759 ;;Total ram usage:        1 bytes
  1760 ;; Hardware stack levels used: 1
  1761 ;; Hardware stack levels required when called: 1
  1762 ;; This function calls:
  1763 ;;		Nothing
  1764 ;; This function is called by:
  1765 ;;		_main
  1766 ;; This function uses a non-reentrant model
  1767 ;;
  1768                           
  1769                           	psect	text12
  1770   000300                     __ptext12:
  1771                           	callstack 0
  1772   000300                     _SelectIO:
  1773                           	callstack 29
  1774                           
  1775                           ;incstack = 0
  1776                           ;SelectIO@index stored from wreg
  1777   000300  6E24               	movwf	SelectIO@index^0,c
  1778   000302                     
  1779                           ;main.c: 104: ;main.c: 105: char buffer[20];;main.c: 107: void main(void)
  1780   000302  9089               	bcf	137,0,c	;volatile
  1781                           
  1782                           ;main.c: 108: {
  1783   000304  9289               	bcf	137,1,c	;volatile
  1784                           
  1785                           ;main.c: 109:     delay_ms(500);
  1786   000306  9489               	bcf	137,2,c	;volatile
  1787                           
  1788                           ;main.c: 110: 
  1789   000308  9689               	bcf	137,3,c	;volatile
  1790                           
  1791                           ;main.c: 111:     UART_Init();
  1792   00030A  9A89               	bcf	137,5,c	;volatile
  1793                           
  1794                           ;main.c: 112: 
  1795   00030C  908D               	bcf	141,0,c	;volatile
  1796                           
  1797                           ;main.c: 115: 
  1798   00030E  EF9B  F001         	goto	l1132
  1799   000312                     l54:
  1800                           
  1801                           ;main.c: 118: 
  1802   000312  8089               	bsf	137,0,c	;volatile
  1803                           
  1804                           ;main.c: 119:     while (1)
  1805   000314  EFB6  F001         	goto	l62
  1806   000318                     l56:
  1807                           
  1808                           ;main.c: 121:         if (uart_frame_ready)
  1809   000318  8289               	bsf	137,1,c	;volatile
  1810                           
  1811                           ;main.c: 122:         {
  1812   00031A  EFB6  F001         	goto	l62
  1813   00031E                     l57:
  1814                           
  1815                           ;main.c: 124: 
  1816   00031E  8489               	bsf	137,2,c	;volatile
  1817                           
  1818                           ;main.c: 125:             if (strstr((char*)uart_rx_buffer, "CONN_REQ"))
  1819   000320  EFB6  F001         	goto	l62
  1820   000324                     l58:
  1821                           
  1822                           ;main.c: 127:                 UART_SendString("CONN_ACK\r\n");
  1823   000324  8689               	bsf	137,3,c	;volatile
  1824                           
  1825                           ;main.c: 128:             }
  1826   000326  EFB6  F001         	goto	l62
  1827   00032A                     l59:
  1828                           
  1829                           ;main.c: 131: 
  1830   00032A  808D               	bsf	141,0,c	;volatile
  1831                           
  1832                           ;main.c: 132:                 SelectIO(1);
  1833   00032C  EFB6  F001         	goto	l62
  1834   000330                     l60:
  1835                           
  1836                           ;main.c: 135:             {
  1837   000330  8A89               	bsf	137,5,c	;volatile
  1838                           
  1839                           ;main.c: 136: 
  1840   000332  EFB6  F001         	goto	l62
  1841   000336                     l1132:
  1842   000336  5024               	movf	SelectIO@index^0,w,c
  1843                           
  1844                           ; Switch size 1, requested type "simple"
  1845                           ; Number of cases is 6, Range of values is 1 to 6
  1846                           ; switch strategies available:
  1847                           ; Name         Instructions Cycles
  1848                           ; simple_byte           19    10 (average)
  1849                           ;	Chosen strategy is simple_byte
  1850   000338  0A01               	xorlw	1	; case 1
  1851   00033A  B4D8               	btfsc	status,2,c
  1852   00033C  EF98  F001         	goto	l60
  1853   000340  0A03               	xorlw	3	; case 2
  1854   000342  B4D8               	btfsc	status,2,c
  1855   000344  EF95  F001         	goto	l59
  1856   000348  0A01               	xorlw	1	; case 3
  1857   00034A  B4D8               	btfsc	status,2,c
  1858   00034C  EF92  F001         	goto	l58
  1859   000350  0A07               	xorlw	7	; case 4
  1860   000352  B4D8               	btfsc	status,2,c
  1861   000354  EF8F  F001         	goto	l57
  1862   000358  0A01               	xorlw	1	; case 5
  1863   00035A  B4D8               	btfsc	status,2,c
  1864   00035C  EF8C  F001         	goto	l56
  1865   000360  0A03               	xorlw	3	; case 6
  1866   000362  B4D8               	btfsc	status,2,c
  1867   000364  EF89  F001         	goto	l54
  1868   000368  EFB6  F001         	goto	l62
  1869   00036C                     l62:
  1870   00036C  0012               	return		;funcret
  1871   00036E                     __end_of_SelectIO:
  1872                           	callstack 0
  1873                           
  1874 ;; *************** function _ISR *****************
  1875 ;; Defined at:
  1876 ;;		line 51 in file "u_uart.c"
  1877 ;; Parameters:    Size  Location     Type
  1878 ;;		None
  1879 ;; Auto vars:     Size  Location     Type
  1880 ;;  received        1    2[COMRAM] unsigned char 
  1881 ;; Return value:  Size  Location     Type
  1882 ;;                  1    wreg      void 
  1883 ;; Registers used:
  1884 ;;		wreg, fsr2l, fsr2h, status,2, status,0
  1885 ;; Tracked objects:
  1886 ;;		On entry : 0/0
  1887 ;;		On exit  : 0/0
  1888 ;;		Unchanged: 0/0
  1889 ;; Data sizes:     COMRAM   BANK0   BANK1   BANK2   BANK3   BANK4   BANK5
  1890 ;;      Params:         0       0       0       0       0       0       0
  1891 ;;      Locals:         1       0       0       0       0       0       0
  1892 ;;      Temps:          2       0       0       0       0       0       0
  1893 ;;      Totals:         3       0       0       0       0       0       0
  1894 ;;Total ram usage:        3 bytes
  1895 ;; Hardware stack levels used: 1
  1896 ;; This function calls:
  1897 ;;		Nothing
  1898 ;; This function is called by:
  1899 ;;		Interrupt level 2
  1900 ;; This function uses a non-reentrant model
  1901 ;;
  1902                           
  1903                           	psect	intcode
  1904   000008                     __pintcode:
  1905                           	callstack 0
  1906   000008                     _ISR:
  1907                           	callstack 28
  1908                           
  1909                           ;incstack = 0
  1910   000008  822F               	bsf	int$flags,1,c	;set compiler interrupt flag (level 2)
  1911   00000A  EDB7  F001         	call	int_func,f	;refresh shadow registers
  1912                           
  1913                           	psect	intcode_body
  1914   00036E                     __pintcode_body:
  1915                           	callstack 28
  1916   00036E                     int_func:
  1917                           	callstack 28
  1918   00036E  0006               	pop		; remove dummy address from shadow register refresh
  1919   000370  CFD9 F021          	movff	fsr2l,??_ISR
  1920   000374  CFDA F022          	movff	fsr2h,??_ISR+1
  1921   000378                     
  1922                           ;u_uart.c: 53:     if (RCIF)
  1923   000378  AA9E               	btfss	3998,5,c	;volatile
  1924   00037A  EFC1  F001         	goto	i2u59_41
  1925   00037E  EFC3  F001         	goto	i2u59_40
  1926   000382                     i2u59_41:
  1927   000382  EFDF  F001         	goto	i2l149
  1928   000386                     i2u59_40:
  1929   000386                     
  1930                           ;u_uart.c: 54:     {;u_uart.c: 55:         uint8_t received = RCREG;
  1931   000386  CFAE F023          	movff	4014,ISR@received	;volatile
  1932   00038A                     
  1933                           ;u_uart.c: 57:         if (uart_frame_ready == 0)
  1934   00038A  5016               	movf	_uart_frame_ready^0,w,c	;volatile
  1935   00038C  A4D8               	btfss	status,2,c
  1936   00038E  EFCB  F001         	goto	i2u60_41
  1937   000392  EFCD  F001         	goto	i2u60_40
  1938   000396                     i2u60_41:
  1939   000396  EFDF  F001         	goto	i2l149
  1940   00039A                     i2u60_40:
  1941   00039A                     
  1942                           ;u_uart.c: 58:         {;u_uart.c: 59:             uart_rx_buffer[uart_rx_index++] = rec
      +                          eived;
  1943   00039A  5015               	movf	_uart_rx_index^0,w,c
  1944   00039C  0F17               	addlw	low _uart_rx_buffer
  1945   00039E  6ED9               	movwf	fsr2l,c
  1946   0003A0  6ADA               	clrf	fsr2h,c
  1947   0003A2  C023  FFDF         	movff	ISR@received,indf2
  1948   0003A6  2A15               	incf	_uart_rx_index^0,f,c	;volatile
  1949   0003A8                     
  1950                           ;u_uart.c: 60:             if (uart_rx_index >= 10)
  1951   0003A8  0E09               	movlw	9
  1952   0003AA  6415               	cpfsgt	_uart_rx_index^0,c	;volatile
  1953   0003AC  EFDA  F001         	goto	i2u61_41
  1954   0003B0  EFDC  F001         	goto	i2u61_40
  1955   0003B4                     i2u61_41:
  1956   0003B4  EFDF  F001         	goto	i2l149
  1957   0003B8                     i2u61_40:
  1958   0003B8                     
  1959                           ;u_uart.c: 61:             {;u_uart.c: 62:                 uart_frame_ready = 1;
  1960   0003B8  0E01               	movlw	1
  1961   0003BA  6E16               	movwf	_uart_frame_ready^0,c	;volatile
  1962   0003BC                     
  1963                           ;u_uart.c: 63:                 uart_rx_index = 0;
  1964   0003BC  6A15               	clrf	_uart_rx_index^0,c	;volatile
  1965   0003BE                     i2l149:
  1966   0003BE  C022  FFDA         	movff	??_ISR+1,fsr2h
  1967   0003C2  C021  FFD9         	movff	??_ISR,fsr2l
  1968   0003C6  922F               	bcf	int$flags,1,c	;clear compiler interrupt flag (level 2)
  1969   0003C8  0011               	retfie		f
  1970   0003CA                     __end_of_ISR:
  1971                           	callstack 0
  1972                           
  1973                           	psect	rparam
  1974   000001                     ___rparam_used  equ	1
  1975   000000                     ___param_bank   equ	0
  1976   000000                     __Lparam        equ	__Lrparam
  1977   000000                     __Hparam        equ	__Hrparam
  1978                           
  1979                           	psect	temp
  1980   00002F                     btemp:
  1981                           	callstack 0
  1982   00002F                     	ds	1
  1983   00002F                     int$flags       set	btemp
  1984   000030                     wtemp8          set	btemp+1
  1985   000030                     ttemp5          set	btemp+1
  1986   000033                     ttemp6          set	btemp+4
  1987   000037                     ttemp7          set	btemp+8
  1988                           
  1989                           	psect	config
  1990                           
  1991                           ; Padding undefined space
  1992   300000                     	org	3145728
  1993   300000  FF                 	db	255
  1994                           
  1995                           ;Config register CONFIG1H @ 0x300001
  1996                           ;	Oscillator Selection bits
  1997                           ;	OSC = HS, HS oscillator
  1998                           ;	Fail-Safe Clock Monitor Enable bit
  1999                           ;	FCMEN = OFF, Fail-Safe Clock Monitor disabled
  2000                           ;	Internal/External Oscillator Switchover bit
  2001                           ;	IESO = OFF, Oscillator Switchover mode disabled
  2002   300001                     	org	3145729
  2003   300001  02                 	db	2
  2004                           
  2005                           ;Config register CONFIG2L @ 0x300002
  2006                           ;	Power-up Timer Enable bit
  2007                           ;	PWRT = OFF, PWRT disabled
  2008                           ;	Brown-out Reset Enable bits
  2009                           ;	BOREN = OFF, Brown-out Reset disabled in hardware and software
  2010                           ;	Brown Out Reset Voltage bits
  2011                           ;	BORV = 3, Minimum setting
  2012   300002                     	org	3145730
  2013   300002  19                 	db	25
  2014                           
  2015                           ;Config register CONFIG2H @ 0x300003
  2016                           ;	Watchdog Timer Enable bit
  2017                           ;	WDT = OFF, WDT disabled (control is placed on the SWDTEN bit)
  2018                           ;	Watchdog Timer Postscale Select bits
  2019                           ;	WDTPS = 32768, 1:32768
  2020   300003                     	org	3145731
  2021   300003  1E                 	db	30
  2022                           
  2023                           ; Padding undefined space
  2024   300004                     	org	3145732
  2025   300004  FF                 	db	255
  2026                           
  2027                           ;Config register CONFIG3H @ 0x300005
  2028                           ;	CCP2 MUX bit
  2029                           ;	CCP2MX = PORTC, CCP2 input/output is multiplexed with RC1
  2030                           ;	PORTB A/D Enable bit
  2031                           ;	PBADEN = 0x1, unprogrammed default
  2032                           ;	Low-Power Timer1 Oscillator Enable bit
  2033                           ;	LPT1OSC = 0x0, unprogrammed default
  2034                           ;	MCLR Pin Enable bit
  2035                           ;	MCLRE = 0x1, unprogrammed default
  2036   300005                     	org	3145733
  2037   300005  83                 	db	131
  2038                           
  2039                           ;Config register CONFIG4L @ 0x300006
  2040                           ;	Stack Full/Underflow Reset Enable bit
  2041                           ;	STVREN = 0x1, unprogrammed default
  2042                           ;	Single-Supply ICSP Enable bit
  2043                           ;	LVP = OFF, Single-Supply ICSP disabled
  2044                           ;	Extended Instruction Set Enable bit
  2045                           ;	XINST = 0x0, unprogrammed default
  2046                           ;	Background Debugger Enable bit
  2047                           ;	DEBUG = OFF, Background debugger disabled, RB6 and RB7 configured as general purpose I
      +                          /O pins
  2048   300006                     	org	3145734
  2049   300006  81                 	db	129
  2050                           
  2051                           ; Padding undefined space
  2052   300007                     	org	3145735
  2053   300007  FF                 	db	255
  2054                           tosu	equ	0xFFF
  2055                           tosh	equ	0xFFE
  2056                           tosl	equ	0xFFD
  2057                           stkptr	equ	0xFFC
  2058                           pclatu	equ	0xFFB
  2059                           pclath	equ	0xFFA
  2060                           pcl	equ	0xFF9
  2061                           tblptru	equ	0xFF8
  2062                           tblptrh	equ	0xFF7
  2063                           tblptrl	equ	0xFF6
  2064                           tablat	equ	0xFF5
  2065                           prodh	equ	0xFF4
  2066                           prodl	equ	0xFF3
  2067                           indf0	equ	0xFEF
  2068                           postinc0	equ	0xFEE
  2069                           postdec0	equ	0xFED
  2070                           preinc0	equ	0xFEC
  2071                           plusw0	equ	0xFEB
  2072                           fsr0h	equ	0xFEA
  2073                           fsr0l	equ	0xFE9
  2074                           wreg	equ	0xFE8
  2075                           indf1	equ	0xFE7
  2076                           postinc1	equ	0xFE6
  2077                           postdec1	equ	0xFE5
  2078                           preinc1	equ	0xFE4
  2079                           plusw1	equ	0xFE3
  2080                           fsr1h	equ	0xFE2
  2081                           fsr1l	equ	0xFE1
  2082                           bsr	equ	0xFE0
  2083                           indf2	equ	0xFDF
  2084                           postinc2	equ	0xFDE
  2085                           postdec2	equ	0xFDD
  2086                           preinc2	equ	0xFDC
  2087                           plusw2	equ	0xFDB
  2088                           fsr2h	equ	0xFDA
  2089                           fsr2l	equ	0xFD9
  2090                           status	equ	0xFD8

Data Sizes:
    Strings     83
    Constant    0
    Data        0
    BSS         32
    Persistent  0
    Stack       0

Auto Spaces:
    Space          Size  Autos    Used
    COMRAM          126     14      46
    BANK0           128      0       0
    BANK1           256      0       0
    BANK2           256      0       0
    BANK3           256      0       0
    BANK4           256      0       0
    BANK5           239      0       0

Pointer List with Targets:

    sp__strchr	PTR unsigned char  size(1) Largest target is 10
		 -> uart_rx_buffer(COMRAM[10]), NULL(NULL[0]), 

    sp__strstr	PTR unsigned char  size(1) Largest target is 10
		 -> uart_rx_buffer(COMRAM[10]), NULL(NULL[0]), 

    strchr@s	PTR const unsigned char  size(1) Largest target is 10
		 -> uart_rx_buffer(COMRAM[10]), NULL(NULL[0]), 

    strlen@a	PTR const unsigned char  size(2) Largest target is 9
		 -> STR_11(CODE[9]), STR_13(CODE[9]), STR_15(CODE[9]), STR_17(CODE[9]), 
		 -> STR_2(CODE[9]), STR_5(CODE[9]), STR_7(CODE[9]), STR_9(CODE[9]), 

    strlen@s	PTR const unsigned char  size(2) Largest target is 9
		 -> STR_11(CODE[9]), STR_13(CODE[9]), STR_15(CODE[9]), STR_17(CODE[9]), 
		 -> STR_2(CODE[9]), STR_5(CODE[9]), STR_7(CODE[9]), STR_9(CODE[9]), 

    strncmp@l	PTR const unsigned char  size(1) Largest target is 10
		 -> uart_rx_buffer(COMRAM[10]), NULL(NULL[0]), 

    strncmp@r	PTR const unsigned char  size(2) Largest target is 9
		 -> STR_11(CODE[9]), STR_13(CODE[9]), STR_15(CODE[9]), STR_17(CODE[9]), 
		 -> STR_2(CODE[9]), STR_5(CODE[9]), STR_7(CODE[9]), STR_9(CODE[9]), 

    strstr@h	PTR const unsigned char  size(1) Largest target is 10
		 -> uart_rx_buffer(COMRAM[10]), NULL(NULL[0]), 

    strstr@n	PTR const unsigned char  size(2) Largest target is 9
		 -> STR_11(CODE[9]), STR_13(CODE[9]), STR_15(CODE[9]), STR_17(CODE[9]), 
		 -> STR_2(CODE[9]), STR_5(CODE[9]), STR_7(CODE[9]), STR_9(CODE[9]), 

    UART_SendString@str	PTR const unsigned char  size(2) Largest target is 11
		 -> STR_3(CODE[11]), 


Critical Paths under _main in COMRAM

    _main->_strstr
    _strstr->_strncmp
    _UART_SendString->_UART_SendChar

Critical Paths under _ISR in COMRAM

    None.

Critical Paths under _main in BANK0

    None.

Critical Paths under _ISR in BANK0

    None.

Critical Paths under _main in BANK1

    None.

Critical Paths under _ISR in BANK1

    None.

Critical Paths under _main in BANK2

    None.

Critical Paths under _ISR in BANK2

    None.

Critical Paths under _main in BANK3

    None.

Critical Paths under _ISR in BANK3

    None.

Critical Paths under _main in BANK4

    None.

Critical Paths under _ISR in BANK4

    None.

Critical Paths under _main in BANK5

    None.

Critical Paths under _ISR in BANK5

    None.

Call Graph Tables:

 ---------------------------------------------------------------------------------
 (Depth) Function   	        Calls       Base Space   Used Autos Params    Refs
 ---------------------------------------------------------------------------------
 (0) _main                                                 0     0      0     757
                           _SelectIO
                          _UART_Init
                    _UART_SendString
                           _delay_ms
                         _init_ports
                         _latch_data
                             _strstr
 ---------------------------------------------------------------------------------
 (1) _strstr                                               5     2      3     601
                                              9 COMRAM     5     2      3
                             _strchr
                             _strlen
                            _strncmp
 ---------------------------------------------------------------------------------
 (2) _strncmp                                              6     1      5     182
                                              3 COMRAM     6     1      5
 ---------------------------------------------------------------------------------
 (2) _strlen                                               4     2      2      91
                                              3 COMRAM     4     2      2
 ---------------------------------------------------------------------------------
 (2) _strchr                                               4     1      3      90
                                              3 COMRAM     4     1      3
 ---------------------------------------------------------------------------------
 (1) _latch_data                                           1     1      0      29
                                              3 COMRAM     1     1      0
 ---------------------------------------------------------------------------------
 (1) _init_ports                                           0     0      0       0
             _init_inputs_RC0_to_RC5
 ---------------------------------------------------------------------------------
 (2) _init_inputs_RC0_to_RC5                               0     0      0       0
 ---------------------------------------------------------------------------------
 (1) _delay_ms                                             3     1      2      23
                                              3 COMRAM     3     1      2
 ---------------------------------------------------------------------------------
 (1) _UART_SendString                                      2     0      2      75
                                              4 COMRAM     2     0      2
                      _UART_SendChar
 ---------------------------------------------------------------------------------
 (2) _UART_SendChar                                        1     1      0      29
                                              3 COMRAM     1     1      0
 ---------------------------------------------------------------------------------
 (1) _UART_Init                                            0     0      0       0
 ---------------------------------------------------------------------------------
 (1) _SelectIO                                             1     1      0      29
                                              3 COMRAM     1     1      0
 ---------------------------------------------------------------------------------
 Estimated maximum stack depth 2
 ---------------------------------------------------------------------------------
 (Depth) Function   	        Calls       Base Space   Used Autos Params    Refs
 ---------------------------------------------------------------------------------
 (3) _ISR                                                  3     3      0      23
                                              0 COMRAM     3     3      0
 ---------------------------------------------------------------------------------
 Estimated maximum stack depth 3
 ---------------------------------------------------------------------------------

 Call Graph Graphs:

 _main (ROOT)
   _SelectIO
   _UART_Init
   _UART_SendString
     _UART_SendChar
   _delay_ms
   _init_ports
     _init_inputs_RC0_to_RC5
   _latch_data
   _strstr
     _strchr
     _strlen
     _strncmp

 _ISR (ROOT)

Address spaces:
Name               Size   Autos  Total    Usage
BIGRAM            1518      0       0      0.0%
BITBANK4           256      0       0      0.0%
BANK4              256      0       0      0.0%
BITBANK3           256      0       0      0.0%
BANK3              256      0       0      0.0%
BITBANK2           256      0       0      0.0%
BANK2              256      0       0      0.0%
BITBANK1           256      0       0      0.0%
BANK1              256      0       0      0.0%
BITBANK5           239      0       0      0.0%
BANK5              239      0       0      0.0%
BITBANK0           128      0       0      0.0%
BANK0              128      0       0      0.0%
BITCOMRAM          126      0       0      0.0%
COMRAM             126     14      46     36.5%
BITBIGSFR_1h        38      0       0      0.0%
BITBIGSFRh          18      0       0      0.0%
BITBIGSFR_1l        12      0       0      0.0%
BITBIGSFR_5h         9      0       0      0.0%
BITBIGSFRlh          6      0       0      0.0%
BITBIGSFR_2          6      0       0      0.0%
BITBIGSFR_4          3      0       0      0.0%
BITBIGSFR_3          3      0       0      0.0%
BITBIGSFR_5l         2      0       0      0.0%
BITBIGSFRll          2      0       0      0.0%
STACK                0      0       0      0.0%
DATA                 0      0      50      0.0%


Microchip Technology PIC18 Macro Assembler V3.00 build 20241204225717 
Symbol Table                                                                                   Sat May 17 19:05:29 2025

                            l41 04BE                              l50 050C                              l60 0330  
                            l44 0530                              l62 036C                              l54 0312  
                            l38 04A0                              l56 0318                              l80 019A  
                            l57 031E                              l58 0324                              l59 032A  
                           l132 0510                             l141 0472                             l135 0522  
                           l129 04DC                             l842 0404                             l851 0402  
                           l844 043C                             l836 02FE                             l855 0260  
                           _GIE 7F97                             u400 021A                             u401 0216  
                           u410 0240                             u411 023C                             u420 041C  
                           u500 0042                             u421 0418                             u501 003E  
                           u350 051E                             u430 043A                             u510 0064  
                           u351 051A                             u431 0436                             u511 0060  
                           u440 04A0                             u360 03F6                             u520 0094  
                           u441 049C                             u361 03F2                             u521 0090  
                           u370 01BE                             u450 0274                             u530 00BE  
                           u371 01BA                             u451 0270                             u531 00BA  
                           u380 01EC                             u460 02B6                             u540 00E8  
                           _ISR 0008                             u381 01E8                             u461 02B2  
                           u541 00E4                             u390 0208                             u470 02E6  
                           u550 0112                             u391 0204                             u471 02E2  
                           u551 010E                             u480 02FC                             u560 013C  
                           u481 02F8                             u561 0138                             u490 0472  
                           u570 0166                             u491 046E                             u627 04AC  
                           u571 0162                             u580 0190                             u637 04B6  
                           u581 018C                             u647 047E                             wreg 0FE8  
                          ?_ISR 0021                            l1100 0422                            l1110 0486  
                          l1102 043A                            l1120 04B4                            l1112 04A4  
                          l1200 0044                            l1106 0474                            l1122 04BC  
                          l1114 04A8                            l1210 00BE                            l1202 0064  
                          l1132 0336                            l1140 04CA                            l1060 0510  
                          l1108 0478                            l1124 04F8                            l1116 04AA  
                          l1220 011C                            l1212 00C8                            l1204 0074  
                          l1150 04D4                            l1142 04CC                            l1134 04C0  
                          l1062 051E                            l1126 0508                            l1118 04B2  
                          l1070 03F6                            l1230 0190                            l1222 013C  
                          l1214 00E8                            l1206 0094                            l1128 0302  
                          l1152 04D6                            l1144 04CE                            l1136 04C4  
                          l1064 03CA                            l1080 01CA                            l1160 0274  
                          l1224 0146                            l1216 00F2                            l1208 009E  
                          l1232 019A                            l1154 04D8                            l1146 04D0  
                          l1138 04C8                            l1058 0524                            l1066 03D6  
                          l1090 0240                            l1082 01D6                            l1074 01A4  
                          l1162 028C                            l1170 02D6                            l1226 0166  
                          l1218 0112                            l1156 04DA                            l1148 04D2  
                          l1180 0442                            l1068 03DA                            l1084 01EC  
                          l1076 01BE                            l1172 02E6                            l1164 02B6  
                          l1228 0170                            l1182 0452                            l1094 0404  
                          l1086 0208                            l1174 02FC                            l1158 0262  
                          l1190 0022                            l1184 0456                            l1096 041C  
                          l1088 021A                            l1168 02BC                            l1192 0026  
                          l1178 043E                            l1194 002C                            l1186 0012  
                          l1196 0032                            l1188 001E                            l1198 0042  
                          STR_1 7D35                            STR_2 7D35                            STR_3 7CEB  
                          STR_4 7CFF                            STR_5 7CFF                            STR_6 7D08  
                          STR_7 7D08                            STR_8 7D11                            STR_9 7D11  
                          _BRGH 7D62                            _CREN 7D5C                            _LATD 0F8C  
                          _PEIE 7F96                            _RCIE 7CED                            _RCIF 7CF5  
                          _SPEN 7D5F                            _TXEN 7D65                            _TXIF 7CF4  
                          _SYNC 7D64                            _main 0012                            fsr2h 0FDA  
                          indf2 0FDF                            fsr2l 0FD9                            btemp 002F  
                          start 000E                    ___param_bank 0000                           ??_ISR 0021  
            latch_data@seg_data 0024                           ?_main 0021                           STR_10 7D1A  
                         STR_11 7D1A                           STR_12 7D23                           STR_13 7D23  
                         STR_14 7D2C                           STR_15 7D2C                           STR_16 7CF6  
                         _BRG16 7DC3                           STR_17 7CF6                           i2l149 03BE  
                         _RCREG 0FAE                           _SPBRG 0FAF                           _TXREG 0FAD  
                 SelectIO@index 0024                ?_UART_SendString 0025                           tablat 0FF5  
                         ttemp5 0030                           ttemp6 0033                           ttemp7 0037  
                         status 0FD8                           wtemp8 0030                 __end_of_strncmp 0262  
               __initialization 04DE                    __end_of_main 01A4                          ??_main 002F  
              __end_of_SelectIO 036E                   __activetblptr 0002        ??_init_inputs_RC0_to_RC5 0024  
                        i2l1240 039A                          i2l1242 03A6                          i2l1234 0378  
                        i2l1244 03A8                          i2l1236 0386                          i2l1246 03B8  
                        i2l1238 038A                          i2l1248 03BC                          _TRISC6 7CA6  
                        _TRISC7 7CA7                __end_of_delay_ms 04A2               __end_of_UART_Init 04DE  
                        _buffer 0001                          clear_0 04E4                          isa$std 0001  
                        _strchr 0404                          _strlen 03CA                          _strstr 0262  
                  __mediumconst 7CEA                          tblptrh 0FF7                          tblptrl 0FF6  
                        tblptru 0FF8           __end_of_UART_SendChar 0524                       ??_strncmp 0029  
                    __accesstop 0080         __end_of__initialization 04EA                   ___rparam_used 0001  
                __pcstackCOMRAM 0021                     ISR@received 0023                       ?_SelectIO 0021  
                       ?_strchr 0024                         ?_strlen 0024                         ?_strstr 002A  
                     ?_delay_ms 0024                         i2u60_40 039A                         i2u60_41 0396  
                       i2u61_40 03B8                         i2u61_41 03B4                         i2u59_40 0386  
                       i2u59_41 0382                      _latch_data 04A2                      ??_SelectIO 0024  
                       __Hparam 0000                         __Lparam 0000              UART_SendString@str 0025  
        _init_inputs_RC0_to_RC5 0524                         __pcinit 04DE                      _init_ports 04F8  
                       __ramtop 0600                         __ptext0 0012                         __ptext1 0262  
                       __ptext2 01A4                         __ptext3 03CA                         __ptext4 0404  
                       __ptext5 04A2                         __ptext6 04F8                         __ptext7 0524  
                       __ptext8 0474                         __ptext9 043E                      ??_delay_ms 0026  
                       _strncmp 01A4                  __pintcode_body 036E                      delay_ms@ms 0024  
          end_of_initialization 04EA                   __Lmediumconst 7CEA                         int_func 036E  
                       postinc0 0FEE                         postinc2 0FDE                         strchr@c 0025  
                       strchr@s 0024                         strlen@a 0026                         strlen@s 0024  
                     _UART_Init 04C0                         strstr@h 002A                         strstr@n 002B  
                     _PORTCbits 0F82                       _TRISAbits 0F92                       _TRISBbits 0F93  
                     _TRISCbits 0F94                       _TRISEbits 0F96                     ?_latch_data 0021  
                    ?_UART_Init 0021                     ?_init_ports 0021                  __end_of_strchr 043E  
                __end_of_strlen 0404                  __end_of_strstr 0300             start_initialization 04DE  
                   __end_of_ISR 03CA               ??_UART_SendString 0027                        ??_strchr 0027  
                      ??_strlen 0026                        ??_strstr 002D                _uart_frame_ready 0016  
                   __pbssCOMRAM 0001         ?_init_inputs_RC0_to_RC5 0021                       __pintcode 0008  
                 __pmediumconst 7CEA                     ??_UART_Init 0024                     __smallconst 7CEA  
                      ?_strncmp 0024                   _UART_SendChar 050E                  _uart_rx_buffer 0017  
__end_of_init_inputs_RC0_to_RC5 0532                        _LATAbits 0F89                        _LATBbits 0F8A  
                      _LATEbits 0F8D                 UART_SendChar@ch 0024                  ?_UART_SendChar 0021  
                  ??_latch_data 0024                        _SelectIO 0300                        __Hrparam 0000  
                      __Lrparam 0000                    ??_init_ports 0024              __end_of_latch_data 04C0  
                      _delay_ms 0474                        __ptext10 050E                        __ptext11 04C0  
                      __ptext12 0300              __end_of_init_ports 050E                   _uart_rx_index 0015  
               _UART_SendString 043E                        isa$xinst 0000                        int$flags 002F  
               ??_UART_SendChar 0024                        intlevel2 0000                        strncmp@l 0024  
                      strncmp@n 0027                        strncmp@r 0025                        strstr@nl 002D  
       __end_of_UART_SendString 0474  
